(dp1
S'output'
p2
S''
sS'layer'
p3
S'Framework'
p4
sS'code'
p5
S''
sS'snapshot'
p6
(dp7
S'exception'
p8
(dp9
S'__getslice__'
p10
S"<method-wrapper '__getslice__' of exceptions.SyntaxError object>"
p11
sS'text'
p12
S'"elif request.function==\'select\':\\n"'
p13
sS'__str__'
p14
S"<method-wrapper '__str__' of exceptions.SyntaxError object>"
p15
sS'__reduce__'
p16
S'<built-in method __reduce__ of exceptions.SyntaxError object>'
p17
sS'__dict__'
p18
S'{}'
p19
sS'__sizeof__'
p20
S'<built-in method __sizeof__ of exceptions.SyntaxError object>'
p21
sS'message'
p22
S"''"
p23
sS'__init__'
p24
S"<method-wrapper '__init__' of exceptions.SyntaxError object>"
p25
sS'__setattr__'
p26
S"<method-wrapper '__setattr__' of exceptions.SyntaxError object>"
p27
sS'__reduce_ex__'
p28
S'<built-in method __reduce_ex__ of exceptions.SyntaxError object>'
p29
sS'__new__'
p30
S'<built-in method __new__ of type object>'
p31
sS'__format__'
p32
S'<built-in method __format__ of exceptions.SyntaxError object>'
p33
sS'__class__'
p34
S"<type 'exceptions.SyntaxError'>"
p35
sS'filename'
p36
S"r'E:\\study\\dasanxia\\database\\web2py_win\\web2py\\applications\\myapp\\views\\appadmin.html'"
p37
sS'lineno'
p38
S'195'
p39
sS'msg'
p40
S"'invalid syntax'"
p41
sS'__doc__'
p42
S"'Invalid syntax.'"
p43
sS'__getitem__'
p44
S"<method-wrapper '__getitem__' of exceptions.SyntaxError object>"
p45
sS'__setstate__'
p46
S'<built-in method __setstate__ of exceptions.SyntaxError object>'
p47
sS'__getattribute__'
p48
S"<method-wrapper '__getattribute__' of exceptions.SyntaxError object>"
p49
sS'print_file_and_line'
p50
S'None'
p51
sS'args'
p52
S'(\'invalid syntax\', (r\'E:\\study\\dasanxia\\database\\web2py_win\\web2py\\applications\\myapp\\views\\appadmin.html\', 195, 4, "elif request.function==\'select\':\\n"))'
p53
sS'__subclasshook__'
p54
S'<built-in method __subclasshook__ of type object>'
p55
sS'offset'
p56
S'4'
sS'__unicode__'
p57
S'<built-in method __unicode__ of exceptions.SyntaxError object>'
p58
sS'__delattr__'
p59
S"<method-wrapper '__delattr__' of exceptions.SyntaxError object>"
p60
sS'__repr__'
p61
S"<method-wrapper '__repr__' of exceptions.SyntaxError object>"
p62
sS'__hash__'
p63
S"<method-wrapper '__hash__' of exceptions.SyntaxError object>"
p64
ssS'evalue'
p65
S'invalid syntax (appadmin.html, line 195)'
p66
sS'request'
p67
cgluon.html
XML_unpickle
p68
(S's\x82n\x00\x00<div><table><tr><td style="font-weight:bold;vertical-align:top;">ajax</td><td style="vertical-align:top;">:</td><td><div>False</div></td></tr><tr><td style="font-weight:bold;vertical-align:top;">application</td><td style="vertical-align:top;">:</td><td><div>myapp</div></td></tr><tr><td style="font-weight:bold;vertical-align:top;">args</td><td style="vertical-align:top;">:</td><td><div><table></table></div></td></tr><tr><td style="font-weight:bold;vertical-align:top;">cid</td><td style="vertical-align:top;">:</td><td><div>None</div></td></tr><tr><td style="font-weight:bold;vertical-align:top;">client</td><td style="vertical-align:top;">:</td><td><div>127.0.0.1</div></td></tr><tr><td style="font-weight:bold;vertical-align:top;">controller</td><td style="vertical-align:top;">:</td><td><div>appadmin</div></td></tr><tr><td style="font-weight:bold;vertical-align:top;">cookies</td><td style="vertical-align:top;">:</td><td><div><table><tr><td style="font-weight:bold;vertical-align:top;">Hm_lvt_6ce2e2fcb41fe8050829bbdd41524ab7</td><td style="vertical-align:top;">:</td><td><div>1557839295,1558057117,1558101390,1558229283<table><tr><td style="font-weight:bold;vertical-align:top;">comment</td><td style="vertical-align:top;">:</td><td><div></div></td></tr><tr><td style="font-weight:bold;vertical-align:top;">domain</td><td style="vertical-align:top;">:</td><td><div></div></td></tr><tr><td style="font-weight:bold;vertical-align:top;">expires</td><td style="vertical-align:top;">:</td><td><div></div></td></tr><tr><td style="font-weight:bold;vertical-align:top;">httponly</td><td style="vertical-align:top;">:</td><td><div></div></td></tr><tr><td style="font-weight:bold;vertical-align:top;">max-age</td><td style="vertical-align:top;">:</td><td><div></div></td></tr><tr><td style="font-weight:bold;vertical-align:top;">path</td><td style="vertical-align:top;">:</td><td><div></div></td></tr><tr><td style="font-weight:bold;vertical-align:top;">samesite</td><td style="vertical-align:top;">:</td><td><div></div></td></tr><tr><td style="font-weight:bold;vertical-align:top;">secure</td><td style="vertical-align:top;">:</td><td><div></div></td></tr><tr><td style="font-weight:bold;vertical-align:top;">version</td><td style="vertical-align:top;">:</td><td><div></div></td></tr></table></div></td></tr><tr><td style="font-weight:bold;vertical-align:top;">bdshare_firstime</td><td style="vertical-align:top;">:</td><td><div>1555400542012<table><tr><td style="font-weight:bold;vertical-align:top;">comment</td><td style="vertical-align:top;">:</td><td><div></div></td></tr><tr><td style="font-weight:bold;vertical-align:top;">domain</td><td style="vertical-align:top;">:</td><td><div></div></td></tr><tr><td style="font-weight:bold;vertical-align:top;">expires</td><td style="vertical-align:top;">:</td><td><div></div></td></tr><tr><td style="font-weight:bold;vertical-align:top;">httponly</td><td style="vertical-align:top;">:</td><td><div></div></td></tr><tr><td style="font-weight:bold;vertical-align:top;">max-age</td><td style="vertical-align:top;">:</td><td><div></div></td></tr><tr><td style="font-weight:bold;vertical-align:top;">path</td><td style="vertical-align:top;">:</td><td><div></div></td></tr><tr><td style="font-weight:bold;vertical-align:top;">samesite</td><td style="vertical-align:top;">:</td><td><div></div></td></tr><tr><td style="font-weight:bold;vertical-align:top;">secure</td><td style="vertical-align:top;">:</td><td><div></div></td></tr><tr><td style="font-weight:bold;vertical-align:top;">version</td><td style="vertical-align:top;">:</td><td><div></div></td></tr></table></div></td></tr><tr><td style="font-weight:bold;vertical-align:top;">session_id_admin</td><td style="vertical-align:top;">:</td><td><div>127.0.0.1-f9644544-50e3-49eb-8aa5-9fb66cadfc7a<table><tr><td style="font-weight:bold;vertical-align:top;">comment</td><td style="vertical-align:top;">:</td><td><div></div></td></tr><tr><td style="font-weight:bold;vertical-align:top;">domain</td><td style="vertical-align:top;">:</td><td><div></div></td></tr><tr><td style="font-weight:bold;vertical-align:top;">expires</td><td style="vertical-align:top;">:</td><td><div></div></td></tr><tr><td style="font-weight:bold;vertical-align:top;">httponly</td><td style="vertical-align:top;">:</td><td><div></div></td></tr><tr><td style="font-weight:bold;vertical-align:top;">max-age</td><td style="vertical-align:top;">:</td><td><div></div></td></tr><tr><td style="font-weight:bold;vertical-align:top;">path</td><td style="vertical-align:top;">:</td><td><div></div></td></tr><tr><td style="font-weight:bold;vertical-align:top;">samesite</td><td style="vertical-align:top;">:</td><td><div></div></td></tr><tr><td style="font-weight:bold;vertical-align:top;">secure</td><td style="vertical-align:top;">:</td><td><div></div></td></tr><tr><td style="font-weight:bold;vertical-align:top;">version</td><td style="vertical-align:top;">:</td><td><div></div></td></tr></table></div></td></tr><tr><td style="font-weight:bold;vertical-align:top;">session_id_myapp</td><td style="vertical-align:top;">:</td><td><div>127.0.0.1-11fdf502-1c98-469f-b399-5e107ace33a8<table><tr><td style="font-weight:bold;vertical-align:top;">comment</td><td style="vertical-align:top;">:</td><td><div></div></td></tr><tr><td style="font-weight:bold;vertical-align:top;">domain</td><td style="vertical-align:top;">:</td><td><div></div></td></tr><tr><td style="font-weight:bold;vertical-align:top;">expires</td><td style="vertical-align:top;">:</td><td><div></div></td></tr><tr><td style="font-weight:bold;vertical-align:top;">httponly</td><td style="vertical-align:top;">:</td><td><div></div></td></tr><tr><td style="font-weight:bold;vertical-align:top;">max-age</td><td style="vertical-align:top;">:</td><td><div></div></td></tr><tr><td style="font-weight:bold;vertical-align:top;">path</td><td style="vertical-align:top;">:</td><td><div></div></td></tr><tr><td style="font-weight:bold;vertical-align:top;">samesite</td><td style="vertical-align:top;">:</td><td><div></div></td></tr><tr><td style="font-weight:bold;vertical-align:top;">secure</td><td style="vertical-align:top;">:</td><td><div></div></td></tr><tr><td style="font-weight:bold;vertical-align:top;">version</td><td style="vertical-align:top;">:</td><td><div></div></td></tr></table></div></td></tr><tr><td style="font-weight:bold;vertical-align:top;">session_id_welcome</td><td style="vertical-align:top;">:</td><td><div>127.0.0.1-8801a7a7-5a62-4060-8633-193f4aa5d372<table><tr><td style="font-weight:bold;vertical-align:top;">comment</td><td style="vertical-align:top;">:</td><td><div></div></td></tr><tr><td style="font-weight:bold;vertical-align:top;">domain</td><td style="vertical-align:top;">:</td><td><div></div></td></tr><tr><td style="font-weight:bold;vertical-align:top;">expires</td><td style="vertical-align:top;">:</td><td><div></div></td></tr><tr><td style="font-weight:bold;vertical-align:top;">httponly</td><td style="vertical-align:top;">:</td><td><div></div></td></tr><tr><td style="font-weight:bold;vertical-align:top;">max-age</td><td style="vertical-align:top;">:</td><td><div></div></td></tr><tr><td style="font-weight:bold;vertical-align:top;">path</td><td style="vertical-align:top;">:</td><td><div></div></td></tr><tr><td style="font-weight:bold;vertical-align:top;">samesite</td><td style="vertical-align:top;">:</td><td><div></div></td></tr><tr><td style="font-weight:bold;vertical-align:top;">secure</td><td style="vertical-align:top;">:</td><td><div></div></td></tr><tr><td style="font-weight:bold;vertical-align:top;">version</td><td style="vertical-align:top;">:</td><td><div></div></td></tr></table></div></td></tr></table></div></td></tr><tr><td style="font-weight:bold;vertical-align:top;">env</td><td style="vertical-align:top;">:</td><td><div><table><tr><td style="font-weight:bold;vertical-align:top;">HTTP_ACCEPT</td><td style="vertical-align:top;">:</td><td><div>text/html,application/xhtml+xml,application/xml;q=0.9,image/webp,image/apng,*/*;q=0.8</div></td></tr><tr><td style="font-weight:bold;vertical-align:top;">HTTP_ACCEPT_ENCODING</td><td style="vertical-align:top;">:</td><td><div>gzip, deflate, br</div></td></tr><tr><td style="font-weight:bold;vertical-align:top;">HTTP_ACCEPT_LANGUAGE</td><td style="vertical-align:top;">:</td><td><div>zh-CN,zh;q=0.9,en;q=0.8</div></td></tr><tr><td style="font-weight:bold;vertical-align:top;">HTTP_CONNECTION</td><td style="vertical-align:top;">:</td><td><div>keep-alive</div></td></tr><tr><td style="font-weight:bold;vertical-align:top;">HTTP_COOKIE</td><td style="vertical-align:top;">:</td><td><div>bdshare_firstime=1555400542012; Hm_lvt_6ce2e2fcb41fe8050829bbdd41524ab7=1557839295,1558057117,1558101390,1558229283; session_id_admin=127.0.0.1-f9644544-50e3-49eb-8aa5-9fb66cadfc7a; session_id_welcome=127.0.0.1-8801a7a7-5a62-4060-8633-193f4aa5d372; session_id_myapp=127.0.0.1-11fdf502-1c98-469f-b399-5e107ace33a8</div></td></tr><tr><td style="font-weight:bold;vertical-align:top;">HTTP_HOST</td><td style="vertical-align:top;">:</td><td><div>127.0.0.1:8000</div></td></tr><tr><td style="font-weight:bold;vertical-align:top;">HTTP_REFERER</td><td style="vertical-align:top;">:</td><td><div>http://127.0.0.1:8000/myapp</div></td></tr><tr><td style="font-weight:bold;vertical-align:top;">HTTP_UPGRADE_INSECURE_REQUESTS</td><td style="vertical-align:top;">:</td><td><div>1</div></td></tr><tr><td style="font-weight:bold;vertical-align:top;">HTTP_USER_AGENT</td><td style="vertical-align:top;">:</td><td><div>Mozilla/5.0 (Windows NT 10.0; WOW64) AppleWebKit/537.36 (KHTML, like Gecko) Chrome/72.0.3626.121 Safari/537.36</div></td></tr><tr><td style="font-weight:bold;vertical-align:top;">PATH_INFO</td><td style="vertical-align:top;">:</td><td><div>/myapp/appadmin/index</div></td></tr><tr><td style="font-weight:bold;vertical-align:top;">QUERY_STRING</td><td style="vertical-align:top;">:</td><td><div></div></td></tr><tr><td style="font-weight:bold;vertical-align:top;">REMOTE_ADDR</td><td style="vertical-align:top;">:</td><td><div>127.0.0.1</div></td></tr><tr><td style="font-weight:bold;vertical-align:top;">REMOTE_PORT</td><td style="vertical-align:top;">:</td><td><div>53066</div></td></tr><tr><td style="font-weight:bold;vertical-align:top;">REQUEST_METHOD</td><td style="vertical-align:top;">:</td><td><div>GET</div></td></tr><tr><td style="font-weight:bold;vertical-align:top;">SCRIPT_NAME</td><td style="vertical-align:top;">:</td><td><div></div></td></tr><tr><td style="font-weight:bold;vertical-align:top;">SERVER_NAME</td><td style="vertical-align:top;">:</td><td><div>JK\xa4\xcelaptop</div></td></tr><tr><td style="font-weight:bold;vertical-align:top;">SERVER_PORT</td><td style="vertical-align:top;">:</td><td><div>8000</div></td></tr><tr><td style="font-weight:bold;vertical-align:top;">SERVER_PROTOCOL</td><td style="vertical-align:top;">:</td><td><div>HTTP/1.1</div></td></tr><tr><td style="font-weight:bold;vertical-align:top;">SERVER_SOFTWARE</td><td style="vertical-align:top;">:</td><td><div>Rocket 1.2.6</div></td></tr><tr><td style="font-weight:bold;vertical-align:top;">app_folders</td><td style="vertical-align:top;">:</td><td><div>set([&#x27;E:\\\\study\\\\dasanxia\\\\database\\\\web2py_win\\\\web2py\\\\applications\\\\admin&#x27;, &#x27;E:\\\\study\\\\dasanxia\\\\database\\\\web2py_win\\\\web2py\\\\applications\\\\examples&#x27;, &#x27;E:\\\\study\\\\dasanxia\\\\database\\\\web2py_win\\\\web2py\\\\applications\\\\myapp&#x27;, &#x27;E:\\\\study\\\\dasanxia\\\\database\\\\web2py_win\\\\web2py\\\\applications\\\\welcome&#x27;])</div></td></tr><tr><td style="font-weight:bold;vertical-align:top;">applications_parent</td><td style="vertical-align:top;">:</td><td><div>E:\\study\\dasanxia\\database\\web2py_win\\web2py</div></td></tr><tr><td style="font-weight:bold;vertical-align:top;">cmd_args</td><td style="vertical-align:top;">:</td><td><div><table></table></div></td></tr><tr><td style="font-weight:bold;vertical-align:top;">cmd_options</td><td style="vertical-align:top;">:</td><td><div>&lt;Values at 0x33ddb20: {&#x27;verbose&#x27;: False, &#x27;ip&#x27;: &#x27;127.0.0.1&#x27;, &#x27;debuglevel&#x27;: 30, &#x27;with_scheduler&#x27;: False, &#x27;shutdown_timeout&#x27;: 5, &#x27;taskbar&#x27;: False, &#x27;with_coverage&#x27;: False, &#x27;pid_filename&#x27;: &#x27;httpserver.pid&#x27;, &#x27;maxthreads&#x27;: None, &#x27;softcron&#x27;: False, &#x27;server_name&#x27;: &#x27;JK\\xa4\\xcelaptop&#x27;, &#x27;bpython&#x27;: False, &#x27;nogui&#x27;: False, &#x27;port&#x27;: 8000, &#x27;print_errors&#x27;: False, &#x27;extcron&#x27;: False, &#x27;runcron&#x27;: False, &#x27;run_system_tests&#x27;: False, &#x27;test&#x27;: None, &#x27;folder&#x27;: &#x27;E:\\\\study\\\\dasanxia\\\\database\\\\web2py_win\\\\web2py&#x27;, &#x27;config&#x27;: &#x27;&#x27;, &#x27;minthreads&#x27;: None, &#x27;shell&#x27;: None, &#x27;run&#x27;: &#x27;&#x27;, &#x27;log_filename&#x27;: &#x27;httpserver.log&#x27;, &#x27;profiler_dir&#x27;: None, &#x27;args&#x27;: [], &#x27;socket_timeout&#x27;: 5, &#x27;ssl_ca_certificate&#x27;: None, &#x27;scheduler&#x27;: None, &#x27;interfaces&#x27;: None, &#x27;ssl_private_key&#x27;: &#x27;&#x27;, &#x27;gae&#x27;: None, &#x27;password&#x27;: &#x27;******&#x27;, &#x27;request_queue_size&#x27;: 5, &#x27;ssl_certificate&#x27;: &#x27;&#x27;, &#x27;cronjob&#x27;: False, &#x27;numthreads&#x27;: None, &#x27;quiet&#x27;: False, &#x27;import_models&#x27;: False, &#x27;timeout&#x27;: 10, &#x27;plain&#x27;: False, &#x27;nobanner&#x27;: False}&gt;</div></td></tr><tr><td style="font-weight:bold;vertical-align:top;">db_sessions</td><td style="vertical-align:top;">:</td><td><div>set([])</div></td></tr><tr><td style="font-weight:bold;vertical-align:top;">debugging</td><td style="vertical-align:top;">:</td><td><div>True</div></td></tr><tr><td style="font-weight:bold;vertical-align:top;">gluon_parent</td><td style="vertical-align:top;">:</td><td><div>E:\\study\\dasanxia\\database\\web2py_win\\web2py</div></td></tr><tr><td style="font-weight:bold;vertical-align:top;">http_accept</td><td style="vertical-align:top;">:</td><td><div>text/html,application/xhtml+xml,application/xml;q=0.9,image/webp,image/apng,*/*;q=0.8</div></td></tr><tr><td style="font-weight:bold;vertical-align:top;">http_accept_encoding</td><td style="vertical-align:top;">:</td><td><div>gzip, deflate, br</div></td></tr><tr><td style="font-weight:bold;vertical-align:top;">http_accept_language</td><td style="vertical-align:top;">:</td><td><div>zh-CN,zh;q=0.9,en;q=0.8</div></td></tr><tr><td style="font-weight:bold;vertical-align:top;">http_connection</td><td style="vertical-align:top;">:</td><td><div>keep-alive</div></td></tr><tr><td style="font-weight:bold;vertical-align:top;">http_cookie</td><td style="vertical-align:top;">:</td><td><div>bdshare_firstime=1555400542012; Hm_lvt_6ce2e2fcb41fe8050829bbdd41524ab7=1557839295,1558057117,1558101390,1558229283; session_id_admin=127.0.0.1-f9644544-50e3-49eb-8aa5-9fb66cadfc7a; session_id_welcome=127.0.0.1-8801a7a7-5a62-4060-8633-193f4aa5d372; session_id_myapp=127.0.0.1-11fdf502-1c98-469f-b399-5e107ace33a8</div></td></tr><tr><td style="font-weight:bold;vertical-align:top;">http_host</td><td style="vertical-align:top;">:</td><td><div>127.0.0.1:8000</div></td></tr><tr><td style="font-weight:bold;vertical-align:top;">http_referer</td><td style="vertical-align:top;">:</td><td><div>http://127.0.0.1:8000/myapp</div></td></tr><tr><td style="font-weight:bold;vertical-align:top;">http_upgrade_insecure_requests</td><td style="vertical-align:top;">:</td><td><div>1</div></td></tr><tr><td style="font-weight:bold;vertical-align:top;">http_user_agent</td><td style="vertical-align:top;">:</td><td><div>Mozilla/5.0 (Windows NT 10.0; WOW64) AppleWebKit/537.36 (KHTML, like Gecko) Chrome/72.0.3626.121 Safari/537.36</div></td></tr><tr><td style="font-weight:bold;vertical-align:top;">is_jython</td><td style="vertical-align:top;">:</td><td><div>False</div></td></tr><tr><td style="font-weight:bold;vertical-align:top;">is_py2</td><td style="vertical-align:top;">:</td><td><div>True</div></td></tr><tr><td style="font-weight:bold;vertical-align:top;">is_pypy</td><td style="vertical-align:top;">:</td><td><div>False</div></td></tr><tr><td style="font-weight:bold;vertical-align:top;">is_source</td><td style="vertical-align:top;">:</td><td><div>False</div></td></tr><tr><td style="font-weight:bold;vertical-align:top;">local_hosts</td><td style="vertical-align:top;">:</td><td><div><table><tr><td><div>fe80::4496:e3c8:93c2:f489%17</div></td></tr><tr><td><div>fe80::b181:f4d5:eca9:c5e7%16</div></td></tr><tr><td><div>2001:da8:d800:196:7d1e:3c2f:41ae:6d1f</div></td></tr><tr><td><div>192.168.222.1</div></td></tr><tr><td><div>::ffff:127.0.0.1</div></td></tr><tr><td><div>::1</div></td></tr><tr><td><div>JK\xa4\xcelaptop</div></td></tr><tr><td><div>192.168.133.1</div></td></tr><tr><td><div>fe80::c051:fcb6:29d1:962%3</div></td></tr><tr><td><div>114.214.244.122</div></td></tr><tr><td><div>2001:da8:d800:196:4496:e3c8:93c2:f489</div></td></tr><tr><td><div>127.0.0.1</div></td></tr></table></div></td></tr><tr><td style="font-weight:bold;vertical-align:top;">path_info</td><td style="vertical-align:top;">:</td><td><div>/myapp/appadmin/index</div></td></tr><tr><td style="font-weight:bold;vertical-align:top;">query_string</td><td style="vertical-align:top;">:</td><td><div></div></td></tr><tr><td style="font-weight:bold;vertical-align:top;">remote_addr</td><td style="vertical-align:top;">:</td><td><div>127.0.0.1</div></td></tr><tr><td style="font-weight:bold;vertical-align:top;">remote_port</td><td style="vertical-align:top;">:</td><td><div>53066</div></td></tr><tr><td style="font-weight:bold;vertical-align:top;">request_method</td><td style="vertical-align:top;">:</td><td><div>GET</div></td></tr><tr><td style="font-weight:bold;vertical-align:top;">request_uri</td><td style="vertical-align:top;">:</td><td><div>/myapp/appadmin/index</div></td></tr><tr><td style="font-weight:bold;vertical-align:top;">script_name</td><td style="vertical-align:top;">:</td><td><div></div></td></tr><tr><td style="font-weight:bold;vertical-align:top;">server_name</td><td style="vertical-align:top;">:</td><td><div>JK\xa4\xcelaptop</div></td></tr><tr><td style="font-weight:bold;vertical-align:top;">server_port</td><td style="vertical-align:top;">:</td><td><div>8000</div></td></tr><tr><td style="font-weight:bold;vertical-align:top;">server_protocol</td><td style="vertical-align:top;">:</td><td><div>HTTP/1.1</div></td></tr><tr><td style="font-weight:bold;vertical-align:top;">server_software</td><td style="vertical-align:top;">:</td><td><div>Rocket 1.2.6</div></td></tr><tr><td style="font-weight:bold;vertical-align:top;">web2py_path</td><td style="vertical-align:top;">:</td><td><div>E:\\study\\dasanxia\\database\\web2py_win\\web2py</div></td></tr><tr><td style="font-weight:bold;vertical-align:top;">web2py_version</td><td style="vertical-align:top;">:</td><td><div>2.18.5-stable+timestamp.2019.04.08.04.22.03</div></td></tr><tr><td style="font-weight:bold;vertical-align:top;">wsgi.errors</td><td style="vertical-align:top;">:</td><td><div>&lt;open file &#x27;&lt;stderr&gt;&#x27;, mode &#x27;w&#x27; at 0x0223D0D0&gt;</div></td></tr><tr><td style="font-weight:bold;vertical-align:top;">wsgi.file_wrapper</td><td style="vertical-align:top;">:</td><td><div>&lt;class wsgiref.util.FileWrapper at 0x032CFA40&gt;</div></td></tr><tr><td style="font-weight:bold;vertical-align:top;">wsgi.input</td><td style="vertical-align:top;">:</td><td><div>&lt;socket._fileobject object at 0x09220830&gt;</div></td></tr><tr><td style="font-weight:bold;vertical-align:top;">wsgi.multiprocess</td><td style="vertical-align:top;">:</td><td><div>False</div></td></tr><tr><td style="font-weight:bold;vertical-align:top;">wsgi.multithread</td><td style="vertical-align:top;">:</td><td><div>True</div></td></tr><tr><td style="font-weight:bold;vertical-align:top;">wsgi.run_once</td><td style="vertical-align:top;">:</td><td><div>False</div></td></tr><tr><td style="font-weight:bold;vertical-align:top;">wsgi.url_scheme</td><td style="vertical-align:top;">:</td><td><div>http</div></td></tr><tr><td style="font-weight:bold;vertical-align:top;">wsgi.version</td><td style="vertical-align:top;">:</td><td><div><table><tr><td><div>1</div></td></tr><tr><td><div>0</div></td></tr></table></div></td></tr><tr><td style="font-weight:bold;vertical-align:top;">wsgi_errors</td><td style="vertical-align:top;">:</td><td><div>&lt;open file &#x27;&lt;stderr&gt;&#x27;, mode &#x27;w&#x27; at 0x0223D0D0&gt;</div></td></tr><tr><td style="font-weight:bold;vertical-align:top;">wsgi_file_wrapper</td><td style="vertical-align:top;">:</td><td><div>&lt;class wsgiref.util.FileWrapper at 0x032CFA40&gt;</div></td></tr><tr><td style="font-weight:bold;vertical-align:top;">wsgi_input</td><td style="vertical-align:top;">:</td><td><div>&lt;socket._fileobject object at 0x09220830&gt;</div></td></tr><tr><td style="font-weight:bold;vertical-align:top;">wsgi_multiprocess</td><td style="vertical-align:top;">:</td><td><div>False</div></td></tr><tr><td style="font-weight:bold;vertical-align:top;">wsgi_multithread</td><td style="vertical-align:top;">:</td><td><div>True</div></td></tr><tr><td style="font-weight:bold;vertical-align:top;">wsgi_run_once</td><td style="vertical-align:top;">:</td><td><div>False</div></td></tr><tr><td style="font-weight:bold;vertical-align:top;">wsgi_url_scheme</td><td style="vertical-align:top;">:</td><td><div>http</div></td></tr><tr><td style="font-weight:bold;vertical-align:top;">wsgi_version</td><td style="vertical-align:top;">:</td><td><div><table><tr><td><div>1</div></td></tr><tr><td><div>0</div></td></tr></table></div></td></tr></table></div></td></tr><tr><td style="font-weight:bold;vertical-align:top;">extension</td><td style="vertical-align:top;">:</td><td><div>html</div></td></tr><tr><td style="font-weight:bold;vertical-align:top;">folder</td><td style="vertical-align:top;">:</td><td><div>E:\\study\\dasanxia\\database\\web2py_win\\web2py\\applications\\myapp</div></td></tr><tr><td style="font-weight:bold;vertical-align:top;">function</td><td style="vertical-align:top;">:</td><td><div>index</div></td></tr><tr><td style="font-weight:bold;vertical-align:top;">global_settings</td><td style="vertical-align:top;">:</td><td><div><table><tr><td style="font-weight:bold;vertical-align:top;">app_folders</td><td style="vertical-align:top;">:</td><td><div>set([&#x27;E:\\\\study\\\\dasanxia\\\\database\\\\web2py_win\\\\web2py\\\\applications\\\\admin&#x27;, &#x27;E:\\\\study\\\\dasanxia\\\\database\\\\web2py_win\\\\web2py\\\\applications\\\\examples&#x27;, &#x27;E:\\\\study\\\\dasanxia\\\\database\\\\web2py_win\\\\web2py\\\\applications\\\\myapp&#x27;, &#x27;E:\\\\study\\\\dasanxia\\\\database\\\\web2py_win\\\\web2py\\\\applications\\\\welcome&#x27;])</div></td></tr><tr><td style="font-weight:bold;vertical-align:top;">applications_parent</td><td style="vertical-align:top;">:</td><td><div>E:\\study\\dasanxia\\database\\web2py_win\\web2py</div></td></tr><tr><td style="font-weight:bold;vertical-align:top;">cmd_args</td><td style="vertical-align:top;">:</td><td><div><table></table></div></td></tr><tr><td style="font-weight:bold;vertical-align:top;">cmd_options</td><td style="vertical-align:top;">:</td><td><div>&lt;Values at 0x33ddb20: {&#x27;verbose&#x27;: False, &#x27;ip&#x27;: &#x27;127.0.0.1&#x27;, &#x27;debuglevel&#x27;: 30, &#x27;with_scheduler&#x27;: False, &#x27;shutdown_timeout&#x27;: 5, &#x27;taskbar&#x27;: False, &#x27;with_coverage&#x27;: False, &#x27;pid_filename&#x27;: &#x27;httpserver.pid&#x27;, &#x27;maxthreads&#x27;: None, &#x27;softcron&#x27;: False, &#x27;server_name&#x27;: &#x27;JK\\xa4\\xcelaptop&#x27;, &#x27;bpython&#x27;: False, &#x27;nogui&#x27;: False, &#x27;port&#x27;: 8000, &#x27;print_errors&#x27;: False, &#x27;extcron&#x27;: False, &#x27;runcron&#x27;: False, &#x27;run_system_tests&#x27;: False, &#x27;test&#x27;: None, &#x27;folder&#x27;: &#x27;E:\\\\study\\\\dasanxia\\\\database\\\\web2py_win\\\\web2py&#x27;, &#x27;config&#x27;: &#x27;&#x27;, &#x27;minthreads&#x27;: None, &#x27;shell&#x27;: None, &#x27;run&#x27;: &#x27;&#x27;, &#x27;log_filename&#x27;: &#x27;httpserver.log&#x27;, &#x27;profiler_dir&#x27;: None, &#x27;args&#x27;: [], &#x27;socket_timeout&#x27;: 5, &#x27;ssl_ca_certificate&#x27;: None, &#x27;scheduler&#x27;: None, &#x27;interfaces&#x27;: None, &#x27;ssl_private_key&#x27;: &#x27;&#x27;, &#x27;gae&#x27;: None, &#x27;password&#x27;: &#x27;******&#x27;, &#x27;request_queue_size&#x27;: 5, &#x27;ssl_certificate&#x27;: &#x27;&#x27;, &#x27;cronjob&#x27;: False, &#x27;numthreads&#x27;: None, &#x27;quiet&#x27;: False, &#x27;import_models&#x27;: False, &#x27;timeout&#x27;: 10, &#x27;plain&#x27;: False, &#x27;nobanner&#x27;: False}&gt;</div></td></tr><tr><td style="font-weight:bold;vertical-align:top;">db_sessions</td><td style="vertical-align:top;">:</td><td><div>set([])</div></td></tr><tr><td style="font-weight:bold;vertical-align:top;">debugging</td><td style="vertical-align:top;">:</td><td><div>True</div></td></tr><tr><td style="font-weight:bold;vertical-align:top;">gluon_parent</td><td style="vertical-align:top;">:</td><td><div>E:\\study\\dasanxia\\database\\web2py_win\\web2py</div></td></tr><tr><td style="font-weight:bold;vertical-align:top;">is_jython</td><td style="vertical-align:top;">:</td><td><div>False</div></td></tr><tr><td style="font-weight:bold;vertical-align:top;">is_py2</td><td style="vertical-align:top;">:</td><td><div>True</div></td></tr><tr><td style="font-weight:bold;vertical-align:top;">is_pypy</td><td style="vertical-align:top;">:</td><td><div>False</div></td></tr><tr><td style="font-weight:bold;vertical-align:top;">is_source</td><td style="vertical-align:top;">:</td><td><div>False</div></td></tr><tr><td style="font-weight:bold;vertical-align:top;">local_hosts</td><td style="vertical-align:top;">:</td><td><div><table><tr><td><div>fe80::4496:e3c8:93c2:f489%17</div></td></tr><tr><td><div>fe80::b181:f4d5:eca9:c5e7%16</div></td></tr><tr><td><div>2001:da8:d800:196:7d1e:3c2f:41ae:6d1f</div></td></tr><tr><td><div>192.168.222.1</div></td></tr><tr><td><div>::ffff:127.0.0.1</div></td></tr><tr><td><div>::1</div></td></tr><tr><td><div>JK\xa4\xcelaptop</div></td></tr><tr><td><div>192.168.133.1</div></td></tr><tr><td><div>fe80::c051:fcb6:29d1:962%3</div></td></tr><tr><td><div>114.214.244.122</div></td></tr><tr><td><div>2001:da8:d800:196:4496:e3c8:93c2:f489</div></td></tr><tr><td><div>127.0.0.1</div></td></tr></table></div></td></tr><tr><td style="font-weight:bold;vertical-align:top;">web2py_version</td><td style="vertical-align:top;">:</td><td><div>2.18.5-stable+timestamp.2019.04.08.04.22.03</div></td></tr></table></div></td></tr><tr><td style="font-weight:bold;vertical-align:top;">is_https</td><td style="vertical-align:top;">:</td><td><div>False</div></td></tr><tr><td style="font-weight:bold;vertical-align:top;">is_local</td><td style="vertical-align:top;">:</td><td><div>True</div></td></tr><tr><td style="font-weight:bold;vertical-align:top;">is_restful</td><td style="vertical-align:top;">:</td><td><div>False</div></td></tr><tr><td style="font-weight:bold;vertical-align:top;">is_scheduler</td><td style="vertical-align:top;">:</td><td><div>False</div></td></tr><tr><td style="font-weight:bold;vertical-align:top;">is_shell</td><td style="vertical-align:top;">:</td><td><div>False</div></td></tr><tr><td style="font-weight:bold;vertical-align:top;">method</td><td style="vertical-align:top;">:</td><td><div>GET</div></td></tr><tr><td style="font-weight:bold;vertical-align:top;">now</td><td style="vertical-align:top;">:</td><td><div>datetime.datetime(2019, 5, 20, 16, 46, 35, 484000)</div></td></tr><tr><td style="font-weight:bold;vertical-align:top;">raw_args</td><td style="vertical-align:top;">:</td><td><div></div></td></tr><tr><td style="font-weight:bold;vertical-align:top;">raw_extension</td><td style="vertical-align:top;">:</td><td><div>None</div></td></tr><tr><td style="font-weight:bold;vertical-align:top;">url</td><td style="vertical-align:top;">:</td><td><div>/myapp/appadmin/index</div></td></tr><tr><td style="font-weight:bold;vertical-align:top;">utcnow</td><td style="vertical-align:top;">:</td><td><div>datetime.datetime(2019, 5, 20, 8, 46, 35, 484000)</div></td></tr><tr><td style="font-weight:bold;vertical-align:top;">wsgi</td><td style="vertical-align:top;">:</td><td><div>&lt;gluon.main.LazyWSGI object at 0x09DEB2F0&gt;</div></td></tr></table></div>'
tRp69
sS'frames'
p70
(lp71
(dp72
S'file'
p73
S'E:\\study\\dasanxia\\database\\web2py_win\\web2py\\gluon\\main.py'
p74
sS'dump'
p75
(dp76
S'global serve_controller'
p77
S'<function serve_controller>'
p78
sS'session'
p79
S"<Storage {'_formkey[comment/create]': ['479c9465...gin]': ['b92e39af-5578-4a4d-9af6-5c6e1ce6e6bf']}>"
p80
sS'request'
p81
S"<Storage {'function': 'index', 'cookies': <Simpl...False, 'is_https': False, 'client': '127.0.0.1'}>"
p82
sS'response'
p83
S"<Storage {'body': <cStringIO.StringO object at 0...lambda> at 0x092208F0>, 'view': 'appadmin.html'}>"
p84
ssS'lnum'
p85
I444
sS'lines'
p86
(dp87
I448
S'                if static_file:'
p88
sI439
S'                if global_settings.debugging and app != "admin":'
p89
sI440
S'                    import gluon.debug'
p90
sI441
S'                    # activate the debugger'
p91
sI442
S'                    gluon.debug.dbg.do_debug(mainpyfile=request.folder)'
p92
sI443
S''
sI444
S'                serve_controller(request, response, session)'
p93
sI445
S'            except HTTP as hr:'
p94
sI446
S'                http_response = hr'
p95
sI447
S''
ssS'call'
p96
S"(environ={'HTTP_ACCEPT': 'text/html,application/xhtml+xml,application/xml;q=0.9,image/webp,image/apng,*/*;q=0.8', 'HTTP_ACCEPT_ENCODING': 'gzip, deflate, br', 'HTTP_ACCEPT_LANGUAGE': 'zh-CN,zh;q=0.9,en;q=0.8', 'HTTP_CONNECTION': 'keep-alive', 'HTTP_COOKIE': 'bdshare_firstime=1555400542012; Hm_lvt_6ce2e2fcb...pp=127.0.0.1-11fdf502-1c98-469f-b399-5e107ace33a8', 'HTTP_HOST': '127.0.0.1:8000', 'HTTP_REFERER': 'http://127.0.0.1:8000/myapp', 'HTTP_UPGRADE_INSECURE_REQUESTS': '1', 'HTTP_USER_AGENT': 'Mozilla/5.0 (Windows NT 10.0; WOW64) AppleWebKit...L, like Gecko) Chrome/72.0.3626.121 Safari/537.36', 'PATH_INFO': '/myapp/appadmin/index', ...}, responder=<function responder2>)"
p97
sS'func'
p98
S'wsgibase'
p99
sa(dp100
g73
S'E:\\study\\dasanxia\\database\\web2py_win\\web2py\\gluon\\main.py'
p101
sg75
(dp102
S'response._view_environment'
p103
S"{'A': <class 'gluon.html.A'>, 'ANY_OF': <class 'pydal.validators.ANY_OF'>, 'ASSIGNJS': <function ASSIGNJS>, 'AppConfig': <function AppConfig>, 'Auth': <class 'gluon.tools.Auth'>, 'B': <class 'gluon.html.B'>, 'BEAUTIFY': <class 'gluon.html.BEAUTIFY'>, 'BODY': <class 'gluon.html.BODY'>, 'BR': <class 'gluon.html.BR'>, 'BUTTON': <class 'gluon.html.BUTTON'>, ...}"
p104
sS'page'
p105
S'{\'databases\': {\'db\': <DAL uri="sqlite://storage.sqlite">}}'
p106
sS'global run_view_in'
p107
S'<function run_view_in>'
p108
sS'response'
p109
S"<Storage {'body': <cStringIO.StringO object at 0...lambda> at 0x092208F0>, 'view': 'appadmin.html'}>"
p110
ssg85
I183
sg86
(dp111
I178
S'    response._view_environment = copy.copy(environment)'
p112
sI179
S'    page = run_controller_in(request.controller, request.function, environment)'
p113
sI180
S'    if isinstance(page, dict):'
p114
sI181
S'        response._vars = page'
p115
sI182
S'        response._view_environment.update(page)'
p116
sI183
S'        page = run_view_in(response._view_environment)'
p117
sI184
S''
sI185
S'    if not request.env.web2py_disable_garbage_collect:'
p118
sI186
S'        # logic to garbage collect after exec, not always, once every 100 requests'
p119
sI187
S'        global requests'
p120
ssg96
S"(request=<Storage {'function': 'index', 'cookies': <Simpl...False, 'is_https': False, 'client': '127.0.0.1'}>, response=<Storage {'body': <cStringIO.StringO object at 0...lambda> at 0x092208F0>, 'view': 'appadmin.html'}>, session=<Storage {'_formkey[comment/create]': ['479c9465...gin]': ['b92e39af-5578-4a4d-9af6-5c6e1ce6e6bf']}>)"
p121
sg98
S'serve_controller'
p122
sa(dp123
g73
S'E:\\study\\dasanxia\\database\\web2py_win\\web2py\\gluon\\compileapp.py'
p124
sg75
(dp125
S'filename'
p126
S"r'E:\\study\\dasanxia\\database\\web2py_win\\web2py\\applications\\myapp\\views\\appadmin.html'"
p127
sS'global compile2'
p128
S'<function compile2>'
p129
sS'ccode'
p130
S'undefined'
p131
sS'scode'
p132
S'r"response.write(\'<!DOCTYPE html>\\r\\n<!--[if (gt I...ite(\'\\r\\n  </body>\\r\\n</html>\\r\\n\', escape=False)"'
p133
ssg85
I733
sg86
(dp134
I736
S'    # parse_template saves everything in response body'
p135
sI737
S"    return environment['response'].body.getvalue()"
p136
sI728
S'            # Parse template'
p137
sI729
S'            scode = parse_template(view,'
p138
sI730
S"                                   pjoin(folder, 'views'),"
p139
sI731
S'                                   context=environment)'
p140
sI732
S'            # Compile template'
p141
sI733
S'            ccode = compile2(scode, filename)'
p142
sI734
S'            layer = filename'
p143
sI735
S'    restricted(ccode, environment, layer=layer, scode=scode)'
p144
ssg96
S"(environment={'A': <class 'gluon.html.A'>, 'ANY_OF': <class 'pydal.validators.ANY_OF'>, 'ASSIGNJS': <function ASSIGNJS>, 'AppConfig': <function AppConfig>, 'Auth': <class 'gluon.tools.Auth'>, 'B': <class 'gluon.html.B'>, 'BEAUTIFY': <class 'gluon.html.BEAUTIFY'>, 'BODY': <class 'gluon.html.BODY'>, 'BR': <class 'gluon.html.BR'>, 'BUTTON': <class 'gluon.html.BUTTON'>, ...})"
p145
sg98
S'run_view_in'
p146
sa(dp147
g73
S'E:\\study\\dasanxia\\database\\web2py_win\\web2py\\gluon\\restricted.py'
p148
sg75
(dp149
S'builtincompile'
p150
S'<built-in function compile>'
p151
sS'code'
p152
S'r"response.write(\'<!DOCTYPE html>\\r\\n<!--[if (gt I...ite(\'\\r\\n  </body>\\r\\n</html>\\r\\n\', escape=False)"'
p153
sS'layer'
p154
S"r'E:\\study\\dasanxia\\database\\web2py_win\\web2py\\applications\\myapp\\views\\appadmin.html'"
p155
ssg85
I205
sg86
(dp156
I200
S'            output = ""'
p157
sI201
S'        return output'
p158
sI202
S''
sI203
S''
sI204
S'def compile2(code, layer):'
p159
sI205
S"    return compile(code, layer, 'exec')"
p160
sI206
S''
sI207
S''
sI208
S"def restricted(ccode, environment=None, layer='Unknown', scode=None):"
p161
sI209
S'    """'
p162
ssg96
S'(code=r"response.write(\'<!DOCTYPE html>\\r\\n<!--[if (gt I...ite(\'\\r\\n  </body>\\r\\n</html>\\r\\n\', escape=False)", layer=r\'E:\\study\\dasanxia\\database\\web2py_win\\web2py\\applications\\myapp\\views\\appadmin.html\')'
p163
sg98
S'compile2'
p164
sasS'pyver'
p165
S'Python 2.7.9: E:\\study\\dasanxia\\database\\web2py_win\\web2py\\web2py.exe (prefix: )'
p166
sS'session'
p167
g68
(S's.!\x01\x00<div><table><tr><td style="font-weight:bold;vertical-align:top;">auth</td><td style="vertical-align:top;">:</td><td><div><table><tr><td style="font-weight:bold;vertical-align:top;">expiration</td><td style="vertical-align:top;">:</td><td><div>3600</div></td></tr><tr><td style="font-weight:bold;vertical-align:top;">hmac_key</td><td style="vertical-align:top;">:</td><td><div>1dd779b5-56ed-469f-aa92-486dbb121c93</div></td></tr><tr><td style="font-weight:bold;vertical-align:top;">last_visit</td><td style="vertical-align:top;">:</td><td><div>datetime.datetime(2019, 5, 20, 16, 41, 34, 131000)</div></td></tr><tr><td style="font-weight:bold;vertical-align:top;">remember_me</td><td style="vertical-align:top;">:</td><td><div>False</div></td></tr><tr><td style="font-weight:bold;vertical-align:top;">user</td><td style="vertical-align:top;">:</td><td><div><table><tr><td style="font-weight:bold;vertical-align:top;">email</td><td style="vertical-align:top;">:</td><td><div>2395432393@qq.com</div></td></tr><tr><td style="font-weight:bold;vertical-align:top;">first_name</td><td style="vertical-align:top;">:</td><td><div>1</div></td></tr><tr><td style="font-weight:bold;vertical-align:top;">id</td><td style="vertical-align:top;">:</td><td><div>1L</div></td></tr><tr><td style="font-weight:bold;vertical-align:top;">last_name</td><td style="vertical-align:top;">:</td><td><div>1</div></td></tr><tr><td style="font-weight:bold;vertical-align:top;">registration_id</td><td style="vertical-align:top;">:</td><td><div></div></td></tr><tr><td style="font-weight:bold;vertical-align:top;">registration_key</td><td style="vertical-align:top;">:</td><td><div></div></td></tr><tr><td style="font-weight:bold;vertical-align:top;">reset_password_key</td><td style="vertical-align:top;">:</td><td><div></div></td></tr></table></div></td></tr><tr><td style="font-weight:bold;vertical-align:top;">user_groups</td><td style="vertical-align:top;">:</td><td><div><table><tr><td style="font-weight:bold;vertical-align:top;">1</td><td style="vertical-align:top;">:</td><td><div>user_1</div></td></tr></table></div></td></tr></table></div></td></tr><tr><td style="font-weight:bold;vertical-align:top;">flash</td><td style="vertical-align:top;">:</td><td><div>None</div></td></tr><tr><td style="font-weight:bold;vertical-align:top;">last_orderby</td><td style="vertical-align:top;">:</td><td><div>None</div></td></tr><tr><td style="font-weight:bold;vertical-align:top;">last_query</td><td style="vertical-align:top;">:</td><td><div>{&#x27;auth_event&#x27;: &lt;Table auth_event (id, time_stamp, client_ip, user_id, origin, description)&gt;, &#x27;auth_permission&#x27;: &lt;Table auth_permission (id, group_id, name, table_name, record_id)&gt;, &#x27;auth_group&#x27;: &lt;Table auth_group (id, role, description)&gt;, &#x27;_folder&#x27;: None, &#x27;_ignore_field_case&#x27;: True, &#x27;_LAZY_TABLES&#x27;: {}, &#x27;_pool_size&#x27;: 10, &#x27;_common_fields&#x27;: [], &#x27;_db_uid&#x27;: &#x27;8f8c2c36867443c686d3bcdf72be5bc3&#x27;, &#x27;_debug&#x27;: False, &#x27;_dbname&#x27;: &#x27;sqlite&#x27;, &#x27;_request_tenant&#x27;: &#x27;request_tenant&#x27;, &#x27;_driver_args&#x27;: None, &#x27;_drivers_available&#x27;: {&#x27;psycopg2&#x27;: &lt;module &#x27;psycopg2&#x27; from &#x27;E:\\study\\dasanxia\\database\\web2py_win\\web2py\\library.zip\\psycopg2\\__init__.pyc&#x27;&gt;, &#x27;pymysql&#x27;: &lt;module &#x27;gluon.contrib.pymysql&#x27; from &#x27;E:\\study\\dasanxia\\database\\web2py_win\\web2py\\gluon\\contrib\\pymysql\\__init__.py&#x27;&gt;, &#x27;imaplib&#x27;: &lt;module &#x27;imaplib&#x27; from &#x27;E:\\study\\dasanxia\\database\\web2py_win\\web2py\\library.zip\\imaplib.pyc&#x27;&gt;, &#x27;MySQLdb&#x27;: &lt;module &#x27;MySQLdb&#x27; from &#x27;E:\\study\\dasanxia\\database\\web2py_win\\web2py\\library.zip\\MySQLdb\\__init__.pyc&#x27;&gt;, &#x27;sqlite3&#x27;: &lt;module &#x27;sqlite3.dbapi2&#x27; from &#x27;E:\\study\\dasanxia\\database\\web2py_win\\web2py\\library.zip\\sqlite3\\dbapi2.pyc&#x27;&gt;, &#x27;pyodbc&#x27;: &lt;module &#x27;pyodbc&#x27; from &#x27;E:\\study\\dasanxia\\database\\web2py_win\\web2py\\pyodbc.pyd&#x27;&gt;}, &#x27;_fake_migrate_all&#x27;: False, &#x27;_check_reserved&#x27;: [&#x27;all&#x27;], &#x27;_do_connect&#x27;: True, &#x27;auth_cas&#x27;: &lt;Table auth_cas (id, user_id, created_on, service, ticket, renew)&gt;, &#x27;_decode_credentials&#x27;: False, &#x27;_migrate&#x27;: True, &#x27;_migrate_enabled&#x27;: True, &#x27;_db_codec&#x27;: &#x27;UTF-8&#x27;, &#x27;_adapter&#x27;: &lt;pydal.adapters.sqlite.SQLite object at 0x0AD989D0&gt;, &#x27;_attempts&#x27;: 5, &#x27;_lazy_tables&#x27;: False, &#x27;_bigint_id&#x27;: False, &#x27;_uri_hash&#x27;: &#x27;c8b669d15150d7109e5f7ab36744a5b7&#x27;, &#x27;_tables&#x27;: [&#x27;auth_user&#x27;, &#x27;auth_group&#x27;, &#x27;auth_membership&#x27;, &#x27;auth_permission&#x27;, &#x27;auth_event&#x27;, &#x27;auth_cas&#x27;], &#x27;_referee_name&#x27;: &#x27;%(table)s&#x27;, &#x27;_adapter_args&#x27;: None, &#x27;RSK&#x27;: {&#x27;jdbc:postgres&#x27;: set([&#x27;THEN&#x27;, &#x27;GROUP&#x27;, &#x27;MIN&#x27;, &#x27;END&#x27;, &#x27;BY&#x27;, &#x27;SELECT&#x27;, &#x27;CASE&#x27;, &#x27;INSERT&#x27;, &#x27;SET&#x27;, &#x27;DISTINCT&#x27;, &#x27;CREATE&#x27;, &#x27;DROP&#x27;, &#x27;WHEN&#x27;, &#x27;ORDER&#x27;, &#x27;ALTER&#x27;, &#x27;LEFT&#x27;, &#x27;OUTER&#x27;, &#x27;FOR&#x27;, &#x27;UPDATE&#x27;, &#x27;ELSE&#x27;, &#x27;AS&#x27;, &#x27;INNER&#x27;, &#x27;IN&#x27;, &#x27;JOIN&#x27;, &#x27;WHERE&#x27;, &#x27;IF&#x27;, &#x27;AND&#x27;, &#x27;ON&#x27;, &#x27;FROM&#x27;, &#x27;LIKE&#x27;, &#x27;MAX&#x27;, &#x27;OR&#x27;, &#x27;LOOP&#x27;, &#x27;DELETE&#x27;]), &#x27;sqlite&#x27;: set([&#x27;TRANSACTION&#x27;, &#x27;THEN&#x27;, &#x27;EXPLAIN&#x27;, &#x27;VACUUM&#x27;, &#x27;CURRENT_DATE&#x27;, &#x27;LIMIT&#x27;, &#x27;ORDER&#x27;, &#x27;RAISE&#x27;, &#x27;TABLE&#x27;, &#x27;UNIQUE&#x27;, &#x27;EXCEPT&#x27;, &#x27;USING&#x27;, &#x27;ACTION&#x27;, &#x27;CHECK&#x27;, &#x27;FULL&#x27;, &#x27;NATURAL&#x27;, &#x27;GLOB&#x27;, &#x27;TRIGGER&#x27;, &#x27;COLLATE&#x27;, &#x27;ESCAPE&#x27;, &#x27;DETACH&#x27;, &#x27;WHERE&#x27;, &#x27;BEFORE&#x27;, &#x27;ON&#x27;, &#x27;OF&#x27;, &#x27;AFTER&#x27;, &#x27;PRIMARY&#x27;, &#x27;DEFERRED&#x27;, &#x27;ABORT&#x27;, &#x27;VALUES&#x27;, &#x27;OR&#x27;, &#x27;DELETE&#x27;, &#x27;INDEX&#x27;, &#x27;GROUP&#x27;, &#x27;FOREIGN&#x27;, &#x27;RESTRICT&#x27;, &#x27;CURRENT_TIMESTAMP&#x27;, &#x27;NOTNULL&#x27;, &#x27;ROLLBACK&#x27;, &#x27;SELECT&#x27;, &#x27;DEFERRABLE&#x27;, &#x27;BEGIN&#x27;, &#x27;TEMP&#x27;, &#x27;ATTACH&#x27;, &#x27;DISTINCT&#x27;, &#x27;SAVEPOINT&#x27;, &#x27;BY&#x27;, &#x27;IS&#x27;, &#x27;ROW&#x27;, &#x27;END&#x27;, &#x27;FOR&#x27;, &#x27;UNION&#x27;, &#x27;UPDATE&#x27;, &#x27;VIRTUAL&#x27;, &#x27;ELSE&#x27;, &#x27;OFFSET&#x27;, &#x27;INDEXED&#x27;, &#x27;INSTEAD&#x27;, &#x27;AND&#x27;, &#x27;REINDEX&#x27;, &#x27;INITIALLY&#x27;, &#x27;NOT&#x27;, &#x27;VIEW&#x27;, &#x27;PLAN&#x27;, &#x27;CURRENT_TIME&#x27;, &#x27;PRAGMA&#x27;, &#x27;DEFAULT&#x27;, &#x27;CROSS&#x27;, &#x27;RELEASE&#x27;, &#x27;REFERENCES&#x27;, &#x27;REGEXP&#x27;, &#x27;CASE&#x27;, &#x27;SET&#x27;, &#x27;NO&#x27;, &#x27;COLUMN&#x27;, &#x27;DROP&#x27;, &#x27;REPLACE&#x27;, &#x27;ASC&#x27;, &#x27;CAST&#x27;, &#x27;COMMIT&#x27;, &#x27;DESC&#x27;, &#x27;LEFT&#x27;, &#x27;OUTER&#x27;, &#x27;CASCADE&#x27;, &#x27;ADD&#x27;, &#x27;BETWEEN&#x27;, &#x27;FAIL&#x27;, &#x27;MATCH&#x27;, &#x27;ALL&#x27;, &#x27;JOIN&#x27;, &#x27;LIKE&#x27;, &#x27;DATABASE&#x27;, &#x27;IGNORE&#x27;, &#x27;KEY&#x27;, &#x27;EACH&#x27;, &#x27;QUERY&#x27;, &#x27;RENAME&#x27;, &#x27;AUTOINCREMENT&#x27;, &#x27;NULL&#x27;, &#x27;EXCLUSIVE&#x27;, &#x27;TEMPORARY&#x27;, &#x27;CONSTRAINT&#x27;, &#x27;CREATE&#x27;, &#x27;WHEN&#x27;, &#x27;IMMEDIATE&#x27;, &#x27;TO&#x27;, &#x27;CONFLICT&#x27;, &#x27;EXISTS&#x27;, &#x27;INSERT&#x27;, &#x27;INTO&#x27;, &#x27;ISNULL&#x27;, &#x27;AS&#x27;, &#x27;INNER&#x27;, &#x27;INTERSECT&#x27;, &#x27;IN&#x27;, &#x27;ANALYZE&#x27;, &#x27;ALTER&#x27;, &#x27;IF&#x27;, &#x27;RIGHT&#x27;, &#x27;FROM&#x27;, &#x27;HAVING&#x27;]), &#x27;ingresu&#x27;: set([&#x27;THEN&#x27;, &#x27;GROUP&#x27;, &#x27;MIN&#x27;, &#x27;END&#x27;, &#x27;BY&#x27;, &#x27;SELECT&#x27;, &#x27;CASE&#x27;, &#x27;INSERT&#x27;, &#x27;SET&#x27;, &#x27;DISTINCT&#x27;, &#x27;CREATE&#x27;, &#x27;DROP&#x27;, &#x27;WHEN&#x27;, &#x27;ORDER&#x27;, &#x27;ALTER&#x27;, &#x27;LEFT&#x27;, &#x27;OUTER&#x27;, &#x27;FOR&#x27;, &#x27;UPDATE&#x27;, &#x27;ELSE&#x27;, &#x27;AS&#x27;, &#x27;INNER&#x27;, &#x27;IN&#x27;, &#x27;JOIN&#x27;, &#x27;WHERE&#x27;, &#x27;IF&#x27;, &#x27;AND&#x27;, &#x27;ON&#x27;, &#x27;FROM&#x27;, &#x27;LIKE&#x27;, &#x27;MAX&#x27;, &#x27;OR&#x27;, &#x27;LOOP&#x27;, &#x27;DELETE&#x27;]), &#x27;postgres&#x27;: set([&#x27;THEN&#x27;, &#x27;CURRENT_DATE&#x27;, &#x27;BIGINT&#x27;, &#x27;LIMIT&#x27;, &#x27;TREAT&#x27;, &#x27;ON&#x27;, &#x27;TRUE&#x27;, &#x27;ORDER&#x27;, &#x27;CURRENT_ROLE&#x27;, &#x27;WHERE&#x27;, &#x27;LOCALTIMESTAMP&#x27;, &#x27;NUMERIC&#x27;, &#x27;CHECK&#x27;, &#x27;OVERLAPS&#x27;, &#x27;FULL&#x27;, &#x27;NATURAL&#x27;, &#x27;GRANT&#x27;, &#x27;NATIONAL&#x27;, &#x27;LEAST&#x27;, &#x27;COLLATE&#x27;, &#x27;POSITION&#x27;, &#x27;FALSE&#x27;, &#x27;UNIQUE&#x27;, &#x27;SIMILAR&#x27;, &#x27;CURRENT_SCHEMA&#x27;, &#x27;BINARY&#x27;, &#x27;PRIMARY&#x27;, &#x27;ONLY&#x27;, &#x27;VALUES&#x27;, &#x27;OR&#x27;, &#x27;GROUP&#x27;, &#x27;XMLPI&#x27;, &#x27;XMLCONCAT&#x27;, &#x27;SOME&#x27;, &#x27;FOREIGN&#x27;, &#x27;CURRENT_TIMESTAMP&#x27;, &#x27;USER&#x27;, &#x27;CURRENT_USER&#x27;, &#x27;DEC&#x27;, &#x27;INOUT&#x27;, &#x27;NONE&#x27;, &#x27;DISTINCT&#x27;, &#x27;WITH&#x27;, &#x27;INTERVAL&#x27;, &#x27;XMLROOT&#x27;, &#x27;COALESCE&#x27;, &#x27;XMLELEMENT&#x27;, &#x27;GREATEST&#x27;, &#x27;INTEGER&#x27;, &#x27;XMLSERIALIZE&#x27;, &#x27;INTO&#x27;, &#x27;ROW&#x27;, &#x27;END&#x27;, &#x27;FOR&#x27;, &#x27;ASYMMETRIC&#x27;, &#x27;ELSE&#x27;, &#x27;OFFSET&#x27;, &#x27;AUTHORIZATION&#x27;, &#x27;NCHAR&#x27;, &#x27;AND&#x27;, &#x27;VERBOSE&#x27;, &#x27;INITIALLY&#x27;, &#x27;TIMESTAMP&#x27;, &#x27;PRECISION&#x27;, &#x27;TIME&#x27;, &#x27;NOT&#x27;, &#x27;ANY&#x27;, &#x27;SYMMETRIC&#x27;, &#x27;REAL&#x27;, &#x27;CURRENT_TIME&#x27;, &#x27;DEFAULT&#x27;, &#x27;CROSS&#x27;, &#x27;SETOF&#x27;, &#x27;EXCEPT&#x27;, &#x27;CHAR&#x27;, &#x27;REFERENCES&#x27;, &#x27;SESSION_USER&#x27;, &#x27;NEW&#x27;, &#x27;FETCH&#x27;, &#x27;CASE&#x27;, &#x27;SUBSTRING&#x27;, &#x27;OLD&#x27;, &#x27;RETURNING&#x27;, &#x27;COLUMN&#x27;, &#x27;ANALYSE&#x27;, &#x27;ASC&#x27;, &#x27;CAST&#x27;, &#x27;VARIADIC&#x27;, &#x27;TABLE&#x27;, &#x27;ARRAY&#x27;, &#x27;EXTRACT&#x27;, &#x27;LEFT&#x27;, &#x27;TRIM&#x27;, &#x27;OUTER&#x27;, &#x27;OVERLAY&#x27;, &#x27;DECIMAL&#x27;, &#x27;PLACING&#x27;, &#x27;ILIKE&#x27;, &#x27;FREEZE&#x27;, &#x27;XMLFOREST&#x27;, &#x27;BETWEEN&#x27;, &#x27;ALL&#x27;, &#x27;JOIN&#x27;, &#x27;LIKE&#x27;, &#x27;NULLIF&#x27;, &#x27;XMLATTRIBUTES&#x27;, &#x27;DEFERRABLE&#x27;, &#x27;INT&#x27;, &#x27;BOOLEAN&#x27;, &#x27;USING&#x27;, &#x27;OUT&#x27;, &#x27;DO&#x27;, &#x27;NOTNULL&#x27;, &#x27;CHARACTER&#x27;, &#x27;OFF&#x27;, &#x27;NULL&#x27;, &#x27;TRAILING&#x27;, &#x27;LOCALTIME&#x27;, &#x27;SMALLINT&#x27;, &#x27;BOTH&#x27;, &#x27;VARCHAR&#x27;, &#x27;CONSTRAINT&#x27;, &#x27;CREATE&#x27;, &#x27;WHEN&#x27;, &#x27;TO&#x27;, &#x27;SELECT&#x27;, &#x27;BIT&#x27;, &#x27;UNION&#x27;, &#x27;EXISTS&#x27;, &#x27;LEADING&#x27;, &#x27;IS&#x27;, &#x27;ISNULL&#x27;, &#x27;AS&#x27;, &#x27;INNER&#x27;, &#x27;INTERSECT&#x27;, &#x27;IN&#x27;, &#x27;CURRENT_CATALOG&#x27;, &#x27;ANALYZE&#x27;, &#x27;DESC&#x27;, &#x27;RIGHT&#x27;, &#x27;FROM&#x27;, &#x27;FLOAT&#x27;, &#x27;XMLPARSE&#x27;, &#x27;HAVING&#x27;]), &#x27;firebird_embedded&#x27;: set([&#x27;VERSION&#x27;, &#x27;GENERATOR&#x27;, &#x27;OCTET_LENGTH&#x27;, &#x27;FILE&#x27;, &#x27;TRUE&#x27;, &#x27;CURRENT_ROLE&#x27;, &#x27;SHELL&#x27;, &#x27;COMPILETIME&#x27;, &#x27;STARTS&#x27;, &#x27;LONG&#x27;, &#x27;INIT&#x27;, &#x27;NUM_LOG_BUFS&#x27;, &#x27;BUFFER&#x27;, &#x27;MERGE&#x27;, &#x27;RETURNS&#x27;, &#x27;STATISTICS&#x27;, &#x27;GROUP_COMMIT_WAIT_TIME&#x27;, &#x27;DISCONNECT&#x27;, &#x27;BEFORE&#x27;, &#x27;GDSCODE&#x27;, &#x27;INSENSITIVE&#x27;, &#x27;SENSITIVE&#x27;, &#x27;EDIT&#x27;, &#x27;AFTER&#x27;, &#x27;STABILITY&#x27;, &#x27;LENGTH&#x27;, &#x27;ISQL&#x27;, &#x27;SHARED&#x27;, &#x27;SUB_TYPE&#x27;, &#x27;INDEX&#x27;, &#x27;RAW_PARTITIONS&#x27;, &#x27;BASED&#x27;, &#x27;HELP&#x27;, &#x27;CURRENT_CONNECTION&#x27;, &#x27;PAGELENGTH&#x27;, &#x27;AUTODDL&#x27;, &#x27;STATIC&#x27;, &#x27;WEEKDAY&#x27;, &#x27;CURRENT_USER&#x27;, &#x27;RESERV&#x27;, &#x27;SHADOW&#x27;, &#x27;CONTAINING&#x27;, &#x27;SAVEPOINT&#x27;, &#x27;DISPLAY&#x27;, &#x27;LOG_BUFFER_SIZE&#x27;, &#x27;MINIMUM&#x27;, &#x27;SNAPSHOT&#x27;, &#x27;CONNECT&#x27;, &#x27;AUTO&#x27;, &#x27;LOGFILE&#x27;, &#x27;STARTING&#x27;, &#x27;FUNCTION&#x27;, &#x27;RECURSIVE&#x27;, &#x27;BLOBEDIT&#x27;, &#x27;ECHO&#x27;, &#x27;ENTRY_POINT&#x27;, &#x27;TERMINATOR&#x27;, &#x27;RETURNING_VALUES&#x27;, &#x27;DEBUG&#x27;, &#x27;START&#x27;, &#x27;MAXIMUM_SEGMENT&#x27;, &#x27;PAGE&#x27;, &#x27;FILTER&#x27;, &#x27;ROW_COUNT&#x27;, &#x27;GROUP_COMMIT_WAIT&#x27;, &#x27;BLOB&#x27;, &#x27;OUTPUT_TYPE&#x27;, &#x27;PAGES&#x27;, &#x27;POST_EVENT&#x27;, &#x27;CHECK_POINT_LEN&#x27;, &#x27;SINGULAR&#x27;, &#x27;LOG_BUF_SIZE&#x27;, &#x27;UNKNOWN&#x27;, &#x27;GLOBAL&#x27;, &#x27;CROSS&#x27;, &#x27;MAX_SEGMENT&#x27;, &#x27;ACTIVE&#x27;, &#x27;WHILE&#x27;, &#x27;INACTIVE&#x27;, &#x27;EXTERN&#x27;, &#x27;RETURN&#x27;, &#x27;OVERFLOW&#x27;, &#x27;OPEN&#x27;, &#x27;FETCH&#x27;, &#x27;NUM_LOG_BUFFERS&#x27;, &#x27;RDB$DB_KEY&#x27;, &#x27;BASE_NAME&#x27;, &#x27;CONDITIONAL&#x27;, &#x27;ASCENDING&#x27;, &#x27;GEN_ID&#x27;, &#x27;CHARACTER_LENGTH&#x27;, &#x27;COMMITTED&#x27;, &#x27;CLOSE&#x27;, &#x27;SORT&#x27;, &#x27;RECREATE&#x27;, &#x27;ADMIN&#x27;, &#x27;INPUT_TYPE&#x27;, &#x27;MAXIMUM&#x27;, &#x27;NOAUTO&#x27;, &#x27;DESCENDING&#x27;, &#x27;STATEMENT&#x27;, &#x27;MODULE_NAME&#x27;, &#x27;RESERVING&#x27;, &#x27;WAIT&#x27;, &#x27;QUIT&#x27;, &#x27;FREE_IT&#x27;, &#x27;ROWS&#x27;, &#x27;FALSE&#x27;, &#x27;LC_MESSAGES&#x27;, &#x27;DATABASE&#x27;, &#x27;MANUAL&#x27;, &#x27;PAGE_SIZE&#x27;, &#x27;BOOLEAN&#x27;, &#x27;EXIT&#x27;, &#x27;LEV&#x27;, &#x27;USING&#x27;, &#x27;TYPE&#x27;, &#x27;EVENT&#x27;, &#x27;DO&#x27;, &#x27;LOWER&#x27;, &#x27;BASENAME&#x27;, &#x27;CACHE&#x27;, &#x27;BIT_LENGTH&#x27;, &#x27;PARAMETER&#x27;, &#x27;TRIM&#x27;, &#x27;BOTH&#x27;, &#x27;SUSPEND&#x27;, &#x27;CHECK_POINT_LENGTH&#x27;, &#x27;TRAILING&#x27;, &#x27;CURRENT_TRANSACTION&#x27;, &#x27;SECOND&#x27;, &#x27;UNCOMMITTED&#x27;, &#x27;DB_KEY&#x27;, &#x27;RETAIN&#x27;, &#x27;YEARDAY&#x27;, &#x27;COMPUTED&#x27;, &#x27;SHOW&#x27;, &#x27;LEADING&#x27;, &#x27;CSTRING&#x27;, &#x27;RECORD_VERSION&#x27;, &#x27;RELEASE&#x27;, &#x27;ABS&#x27;, &#x27;PLAN&#x27;, &#x27;VARIABLE&#x27;, &#x27;RUNTIME&#x27;, &#x27;IF&#x27;, &#x27;LC_TYPE&#x27;, &#x27;TRIGGER&#x27;, &#x27;MESSAGE&#x27;, &#x27;CHAR_LENGTH&#x27;]), &#x27;postgres_nonreserved&#x27;: set([&#x27;EXECUTE&#x27;, &#x27;OCCURRENCES_REGEX&#x27;, &#x27;SIMPLE&#x27;, &#x27;TEXT&#x27;, &#x27;EXPLAIN&#x27;, &#x27;OCTET_LENGTH&#x27;, &#x27;ROUTINE_CATALOG&#x27;, &#x27;CONSTRAINT_NAME&#x27;, &#x27;FORCE&#x27;, &#x27;POWER&#x27;, &#x27;IMPLEMENTATION&#x27;, &#x27;QUOTE&#x27;, &#x27;PRECEDING&#x27;, &#x27;SPECIFIC_NAME&#x27;, &#x27;LOCATOR&#x27;, &#x27;RECHECK&#x27;, &#x27;STRIP&#x27;, &#x27;ACTION&#x27;, &#x27;TRANSLATION&#x27;, &#x27;VAR_SAMP&#x27;, &#x27;TRANSACTIONS_COMMITTED&#x27;, &#x27;XMLSCHEMA&#x27;, &#x27;TRIM_ARRAY&#x27;, &#x27;DISPATCH&#x27;, &#x27;CURRENT&#x27;, &#x27;P&#x27;, &#x27;TIMEZONE_HOUR&#x27;, &#x27;GO&#x27;, &#x27;CORRESPONDING&#x27;, &#x27;XMLAGG&#x27;, &#x27;MINUTE&#x27;, &#x27;MAP&#x27;, &#x27;INSTANTIABLE&#x27;, &#x27;MAX&#x27;, &#x27;LAG&#x27;, &#x27;SUBCLASS_ORIGIN&#x27;, &#x27;INSTANCE&#x27;, &#x27;COBOL&#x27;, &#x27;USER_DEFINED_TYPE_NAME&#x27;, &#x27;VIEW&#x27;, &#x27;ROW_NUMBER&#x27;, &#x27;PREORDER&#x27;, &#x27;DATETIME_INTERVAL_PRECISION&#x27;, &#x27;DEFINED&#x27;, &#x27;TRANSACTION_ACTIVE&#x27;, &#x27;ROLLUP&#x27;, &#x27;LOCATION&#x27;, &#x27;VOLATILE&#x27;, &#x27;MODIFIES&#x27;, &#x27;ABSOLUTE&#x27;, &#x27;UNNEST&#x27;, &#x27;DEFINER&#x27;, &#x27;LOAD&#x27;, &#x27;NFD&#x27;, &#x27;NFC&#x27;, &#x27;RECURSIVE&#x27;, &#x27;SEQUENCE&#x27;, &#x27;LATERAL&#x27;, &#x27;DETERMINISTIC&#x27;, &#x27;EQUALS&#x27;, &#x27;INDEXES&#x27;, &#x27;FLAG&#x27;, &#x27;VALIDATOR&#x27;, &#x27;NOTIFY&#x27;, &#x27;UNDER&#x27;, &#x27;LAST&#x27;, &#x27;IDENTITY&#x27;, &#x27;COMPLETION&#x27;, &#x27;BREADTH&#x27;, &#x27;REINDEX&#x27;, &#x27;TYPE&#x27;, &#x27;VACUUM&#x27;, &#x27;XMLNAMESPACES&#x27;, &#x27;FILTER&#x27;, &#x27;ORDINALITY&#x27;, &#x27;BLOB&#x27;, &#x27;XMLVALIDATE&#x27;, &#x27;UNBOUNDED&#x27;, &#x27;TRIGGER_NAME&#x27;, &#x27;MORE&#x27;, &#x27;MATCHED&#x27;, &#x27;TOP_LEVEL_COUNT&#x27;, &#x27;READ&#x27;, &#x27;REGR_SLOPE&#x27;, &#x27;COLLECT&#x27;, &#x27;FUSION&#x27;, &#x27;COST&#x27;, &#x27;GENERAL&#x27;, &#x27;REF&#x27;, &#x27;NULLABLE&#x27;, &#x27;DROP&#x27;, &#x27;CATALOG_NAME&#x27;, &#x27;MEMBER&#x27;, &#x27;SCHEMA_NAME&#x27;, &#x27;COMMITTED&#x27;, &#x27;DOCUMENT&#x27;, &#x27;NTH_VALUE&#x27;, &#x27;PARTITION&#x27;, &#x27;ELEMENT&#x27;, &#x27;CONTENT&#x27;, &#x27;REASSIGN&#x27;, &#x27;HOST&#x27;, &#x27;SPACE&#x27;, &#x27;COLUMNS&#x27;, &#x27;PARAMETER_MODE&#x27;, &#x27;UPPER&#x27;, &#x27;DISCONNECT&#x27;, &#x27;DATABASE&#x27;, &#x27;WHENEVER&#x27;, &#x27;XMLQUERY&#x27;, &#x27;STRUCTURE&#x27;, &#x27;EXCEPTION&#x27;, &#x27;SQLERROR&#x27;, &#x27;CLOB&#x27;, &#x27;UNTYPED&#x27;, &#x27;DESCRIBE&#x27;, &#x27;NORMALIZED&#x27;, &#x27;CHARACTERS&#x27;, &#x27;CONSTRUCTOR&#x27;, &#x27;DATE&#x27;, &#x27;DATA&#x27;, &#x27;DATETIME_INTERVAL_CODE&#x27;, &#x27;PARAMETERS&#x27;, &#x27;LN&#x27;, &#x27;EXEC&#x27;, &#x27;COLLATION_SCHEMA&#x27;, &#x27;TIES&#x27;, &#x27;ITERATE&#x27;, &#x27;LEVEL&#x27;, &#x27;A&#x27;, &#x27;COMMAND_FUNCTION&#x27;, &#x27;ABSENT&#x27;, &#x27;REGR_SXX&#x27;, &#x27;REGR_SXY&#x27;, &#x27;RELEASE&#x27;, &#x27;ABS&#x27;, &#x27;FOUND&#x27;, &#x27;COLLATION_NAME&#x27;, &#x27;INFIX&#x27;, &#x27;CHARACTER_SET_SCHEMA&#x27;, &#x27;GENERATED&#x27;, &#x27;VERSION&#x27;, &#x27;CALL&#x27;, &#x27;BITVAR&#x27;, &#x27;LISTEN&#x27;, &#x27;RESET&#x27;, &#x27;ASENSITIVE&#x27;, &#x27;TRANSACTION&#x27;, &#x27;LESS&#x27;, &#x27;LANCOMPILER&#x27;, &#x27;LC_CTYPE&#x27;, &#x27;PARAMETER_NAME&#x27;, &#x27;VALID&#x27;, &#x27;XMLCOMMENT&#x27;, &#x27;CURSOR_NAME&#x27;, &#x27;INITIALIZE&#x27;, &#x27;DEREF&#x27;, &#x27;LAST_VALUE&#x27;, &#x27;MESSAGE_OCTET_LENGTH&#x27;, &#x27;SOURCE&#x27;, &#x27;EVERY&#x27;, &#x27;NAMES&#x27;, &#x27;CREATEUSER&#x27;, &#x27;CONDITION&#x27;, &#x27;DICTIONARY&#x27;, &#x27;ENUM&#x27;, &#x27;SPECIFICTYPE&#x27;, &#x27;URI&#x27;, &#x27;OCTETS&#x27;, &#x27;RETURNS&#x27;, &#x27;SQLCODE&#x27;, &#x27;MAX_CARDINALITY&#x27;, &#x27;PARTIAL&#x27;, &#x27;FIRST&#x27;, &#x27;MESSAGE_LENGTH&#x27;, &#x27;PARSER&#x27;, &#x27;ENCRYPTED&#x27;, &#x27;CONTAINS&#x27;, &#x27;WIDTH_BUCKET&#x27;, &#x27;MONTH&#x27;, &#x27;CLUSTER&#x27;, &#x27;CATALOG&#x27;, &#x27;ABORT&#x27;, &#x27;DELETE&#x27;, &#x27;TRANSFORMS&#x27;, &#x27;SCALE&#x27;, &#x27;TRUNCATE&#x27;, &#x27;TRANSFORM&#x27;, &#x27;FOLLOWING&#x27;, &#x27;TRANSLATE&#x27;, &#x27;FINAL&#x27;, &#x27;SUPERUSER&#x27;, &#x27;BEGIN&#x27;, &#x27;CHAIN&#x27;, &#x27;SHARE&#x27;, &#x27;USER_DEFINED_TYPE_SCHEMA&#x27;, &#x27;STABLE&#x27;, &#x27;DEALLOCATE&#x27;, &#x27;BACKWARD&#x27;, &#x27;FUNCTION&#x27;, &#x27;G&#x27;, &#x27;CURRENT_PATH&#x27;, &#x27;UPDATE&#x27;, &#x27;RANGE&#x27;, &#x27;TIMEZONE_MINUTE&#x27;, &#x27;USER_DEFINED_TYPE_CODE&#x27;, &#x27;SECURITY&#x27;, &#x27;CSV&#x27;, &#x27;LEAD&#x27;, &#x27;SQLWARNING&#x27;, &#x27;TERMINATE&#x27;, &#x27;CHAR_LENGTH&#x27;, &#x27;STRICT&#x27;, &#x27;OTHERS&#x27;, &#x27;CONTINUE&#x27;, &#x27;COLLATION&#x27;, &#x27;SUBSTRING_REGEX&#x27;, &#x27;INDEX&#x27;, &#x27;UNKNOWN&#x27;, &#x27;SECTION&#x27;, &#x27;ATOMIC&#x27;, &#x27;ARRAY_AGG&#x27;, &#x27;SET&#x27;, &#x27;HOUR&#x27;, &#x27;ORDERING&#x27;, &#x27;WORK&#x27;, &#x27;RULE&#x27;, &#x27;VALUE&#x27;, &#x27;DISABLE&#x27;, &#x27;ROUTINE_SCHEMA&#x27;, &#x27;COMMIT&#x27;, &#x27;CONFIGURATION&#x27;, &#x27;STDIN&#x27;, &#x27;USAGE&#x27;, &#x27;INHERIT&#x27;, &#x27;NOCREATEDB&#x27;, &#x27;MATCH&#x27;, &#x27;ROWS&#x27;, &#x27;COVAR_POP&#x27;, &#x27;PERCENT_RANK&#x27;, &#x27;LC_COLLATE&#x27;, &#x27;DESCRIPTOR&#x27;, &#x27;STDDEV_POP&#x27;, &#x27;KEY&#x27;, &#x27;EACH&#x27;, &#x27;END-EXEC&#x27;, &#x27;NOWAIT&#x27;, &#x27;DEGREE&#x27;, &#x27;ENCODING&#x27;, &#x27;GRANTED&#x27;, &#x27;XMLDECLARATION&#x27;, &#x27;TRIGGER_SCHEMA&#x27;, &#x27;DEPTH&#x27;, &#x27;SQRT&#x27;, &#x27;DIAGNOSTICS&#x27;, &#x27;COLLATION_CATALOG&#x27;, &#x27;PATH&#x27;, &#x27;BIT_LENGTH&#x27;, &#x27;PARAMETER&#x27;, &#x27;OPTIONS&#x27;, &#x27;REGR_R2&#x27;, &#x27;TEMPORARY&#x27;, &#x27;BASE64&#x27;, &#x27;IMMEDIATE&#x27;, &#x27;REGR_SYY&#x27;, &#x27;ALLOCATE&#x27;, &#x27;ISOLATION&#x27;, &#x27;AGGREGATE&#x27;, &#x27;CLASS&#x27;, &#x27;GROUPING&#x27;, &#x27;EXCLUDING&#x27;, &#x27;M&#x27;, &#x27;ASSERTION&#x27;, &#x27;HEADER&#x27;, &#x27;RETURNED_LENGTH&#x27;, &#x27;FORWARD&#x27;, &#x27;HOLD&#x27;, &#x27;IMMUTABLE&#x27;, &#x27;CEILING&#x27;, &#x27;ZONE&#x27;, &#x27;REPLICA&#x27;, &#x27;NOTHING&#x27;, &#x27;PROCEDURAL&#x27;, &#x27;CONSTRAINT_SCHEMA&#x27;, &#x27;INDICATOR&#x27;, &#x27;ENABLE&#x27;, &#x27;STATEMENT&#x27;, &#x27;CONDITION_NUMBER&#x27;, &#x27;OBJECT&#x27;, &#x27;PAD&#x27;, &#x27;EXP&#x27;, &#x27;VARBINARY&#x27;, &#x27;CONSTRAINTS&#x27;, &#x27;COMMENT&#x27;, &#x27;PARAMETER_SPECIFIC_CATALOG&#x27;, &#x27;CURRENT_DEFAULT_TRANSFORM_GROUP&#x27;, &#x27;SYSTEM_USER&#x27;, &#x27;MIN&#x27;, &#x27;NEXT&#x27;, &#x27;SESSION&#x27;, &#x27;METHOD&#x27;, &#x27;WITHIN&#x27;, &#x27;CHECKED&#x27;, &#x27;FLOOR&#x27;, &#x27;REGR_INTERCEPT&#x27;, &#x27;TRANSACTIONS_ROLLED_BACK&#x27;, &#x27;MODULE&#x27;, &#x27;RELATIVE&#x27;, &#x27;XMLCAST&#x27;, &#x27;DECLARE&#x27;, &#x27;REGR_AVGY&#x27;, &#x27;INSENSITIVE&#x27;, &#x27;NIL&#x27;, &#x27;NFKC&#x27;, &#x27;AFTER&#x27;, &#x27;UNLISTEN&#x27;, &#x27;NFKD&#x27;, &#x27;CURSOR&#x27;, &#x27;DEFERRED&#x27;, &#x27;INCLUDING&#x27;, &#x27;NCLOB&#x27;, &#x27;YES&#x27;, &#x27;RESTART&#x27;, &#x27;NORMALIZE&#x27;, &#x27;COUNT&#x27;, &#x27;CONCURRENTLY&#x27;, &#x27;RETURN&#x27;, &#x27;CREATEDB&#x27;, &#x27;NOLOGIN&#x27;, &#x27;MODIFY&#x27;, &#x27;EXISTING&#x27;, &#x27;LARGE&#x27;, &#x27;STATIC&#x27;, &#x27;ROLLBACK&#x27;, &#x27;MINVALUE&#x27;, &#x27;RETURNED_OCTET_LENGTH&#x27;, &#x27;SEARCH&#x27;, &#x27;GET&#x27;, &#x27;BY&#x27;, &#x27;SYSID&#x27;, &#x27;REFERENCING&#x27;, &#x27;K&#x27;, &#x27;COLUMN_NAME&#x27;, &#x27;TRANSLATE_REGEX&#x27;, &#x27;C&#x27;, &#x27;WITHOUT&#x27;, &#x27;NULLS&#x27;, &#x27;PROCEDURE&#x27;, &#x27;PRIOR&#x27;, &#x27;EXTERNAL&#x27;, &#x27;INPUT&#x27;, &#x27;UNTIL&#x27;, &#x27;YEAR&#x27;, &#x27;CHECKPOINT&#x27;, &#x27;CONNECTION&#x27;, &#x27;SCOPE_NAME&#x27;, &#x27;ATTRIBUTES&#x27;, &#x27;PARAMETER_SPECIFIC_SCHEMA&#x27;, &#x27;MOD&#x27;, &#x27;ROUTINE&#x27;, &#x27;GLOBAL&#x27;, &#x27;CEIL&#x27;, &#x27;SENSITIVE&#x27;, &#x27;PASCAL&#x27;, &#x27;TABLESPACE&#x27;, &#x27;PARAMETER_SPECIFIC_NAME&#x27;, &#x27;REGR_COUNT&#x27;, &#x27;DESTROY&#x27;, &#x27;REVOKE&#x27;, &#x27;SPECIFIC&#x27;, &#x27;STANDALONE&#x27;, &#x27;CHARACTERISTICS&#x27;, &#x27;XMLEXISTS&#x27;, &#x27;CHARACTER_LENGTH&#x27;, &#x27;INCREMENT&#x27;, &#x27;UNNAMED&#x27;, &#x27;TRUSTED&#x27;, &#x27;XML&#x27;, &#x27;LOCK&#x27;, &#x27;HEX&#x27;, &#x27;FREE&#x27;, &#x27;SECOND&#x27;, &#x27;MUMPS&#x27;, &#x27;CONVERSION&#x27;, &#x27;STATISTICS&#x27;, &#x27;CURRENT_TRANSFORM_GROUP_FOR_TYPE&#x27;, &#x27;RETURNED_SQLSTATE&#x27;, &#x27;OWNED&#x27;, &#x27;IGNORE&#x27;, &#x27;XMLITERATE&#x27;, &#x27;VAR_POP&#x27;, &#x27;TEMPLATE&#x27;, &#x27;OWNER&#x27;, &#x27;CLASS_ORIGIN&#x27;, &#x27;KEY_MEMBER&#x27;, &#x27;PUBLIC&#x27;, &#x27;PLI&#x27;, &#x27;NTILE&#x27;, &#x27;RENAME&#x27;, &#x27;LOWER&#x27;, &#x27;STDOUT&#x27;, &#x27;CACHE&#x27;, &#x27;STORAGE&#x27;, &#x27;XMLTEXT&#x27;, &#x27;PARAMETER_ORDINAL_POSITION&#x27;, &#x27;NOSUPERUSER&#x27;, &#x27;INSERT&#x27;, &#x27;OVERRIDING&#x27;, &#x27;DENSE_RANK&#x27;, &#x27;FAMILY&#x27;, &#x27;SERVER_NAME&#x27;, &#x27;XMLTABLE&#x27;, &#x27;PRIVILEGES&#x27;, &#x27;POSITION_REGEX&#x27;, &#x27;MODE&#x27;, &#x27;EXCLUDE&#x27;, &#x27;STYLE&#x27;, &#x27;COMMAND_FUNCTION_CODE&#x27;, &#x27;ACCORDING&#x27;, &#x27;CONSTRAINT_CATALOG&#x27;, &#x27;NOCREATEUSER&#x27;, &#x27;ALIAS&#x27;, &#x27;PERCENTILE_CONT&#x27;, &#x27;VARIABLE&#x27;, &#x27;PERCENTILE_DISC&#x27;, &#x27;IF&#x27;, &#x27;TABLESAMPLE&#x27;, &#x27;PLANS&#x27;, &#x27;ALWAYS&#x27;, &#x27;XMLDOCUMENT&#x27;, &#x27;DESTRUCTOR&#x27;, &#x27;ACCESS&#x27;, &#x27;WINDOW&#x27;, &#x27;TRIGGER&#x27;, &#x27;ARE&#x27;, &#x27;PRESERVE&#x27;, &#x27;NOINHERIT&#x27;, &#x27;POSTFIX&#x27;, &#x27;OVER&#x27;, &#x27;MOVE&#x27;, &#x27;MAPPING&#x27;, &#x27;HANDLER&#x27;, &#x27;BOM&#x27;, &#x27;PASSING&#x27;, &#x27;ALTER&#x27;, &#x27;DERIVED&#x27;, &#x27;STDDEV_SAMP&#x27;, &#x27;KEY_TYPE&#x27;, &#x27;COVAR_SAMP&#x27;, &#x27;USER_DEFINED_TYPE_CATALOG&#x27;, &#x27;UNENCRYPTED&#x27;, &#x27;LIKE_REGEX&#x27;, &#x27;RETURNED_CARDINALITY&#x27;, &#x27;INHERITS&#x27;, &#x27;GOTO&#x27;, &#x27;NAMESPACE&#x27;, &#x27;SUBMULTISET&#x27;, &#x27;MERGE&#x27;, &#x27;DELIMITER&#x27;, &#x27;REPEATABLE&#x27;, &#x27;T&#x27;, &#x27;ESCAPE&#x27;, &#x27;SCOPE&#x27;, &#x27;INTERSECTION&#x27;, &#x27;SERIALIZABLE&#x27;, &#x27;BEFORE&#x27;, &#x27;INDENT&#x27;, &#x27;OF&#x27;, &#x27;SUBLIST&#x27;, &#x27;CALLED&#x27;, &#x27;LENGTH&#x27;, &#x27;DOUBLE&#x27;, &#x27;OUTPUT&#x27;, &#x27;CONVERT&#x27;, &#x27;ASSIGNMENT&#x27;, &#x27;SCOPE_SCHEMA&#x27;, &#x27;RESTRICT&#x27;, &#x27;UESCAPE&#x27;, &#x27;DISCARD&#x27;, &#x27;SERVER&#x27;, &#x27;EMPTY&#x27;, &#x27;FIRST_VALUE&#x27;, &#x27;LANGUAGE&#x27;, &#x27;RESPECT&#x27;, &#x27;SAVEPOINT&#x27;, &#x27;DYNAMIC_FUNCTION_CODE&#x27;, &#x27;DYNAMIC&#x27;, &#x27;READS&#x27;, &#x27;TRIGGER_CATALOG&#x27;, &#x27;CONNECT&#x27;, &#x27;DEFAULTS&#x27;, &#x27;SQL&#x27;, &#x27;NOCREATEROLE&#x27;, &#x27;CREATEROLE&#x27;, &#x27;INVOKER&#x27;, &#x27;REGR_AVGX&#x27;, &#x27;OPERATOR&#x27;, &#x27;INSTEAD&#x27;, &#x27;SIZE&#x27;, &#x27;WHITESPACE&#x27;, &#x27;START&#x27;, &#x27;CHARACTER_SET_NAME&#x27;, &#x27;ATTRIBUTE&#x27;, &#x27;ROW_COUNT&#x27;, &#x27;BERNOULLI&#x27;, &#x27;AVG&#x27;, &#x27;CHARACTER_SET_CATALOG&#x27;, &#x27;OPTION&#x27;, &#x27;PREPARE&#x27;, &#x27;SUM&#x27;, &#x27;DOMAIN&#x27;, &#x27;RANK&#x27;, &#x27;PREPARED&#x27;, &#x27;OPEN&#x27;, &#x27;COPY&#x27;, &#x27;NO&#x27;, &#x27;WRAPPER&#x27;, &#x27;REPLACE&#x27;, &#x27;SQLSTATE&#x27;, &#x27;CLOSE&#x27;, &#x27;SCHEMA&#x27;, &#x27;RESULT&#x27;, &#x27;ROUTINE_NAME&#x27;, &#x27;ADMIN&#x27;, &#x27;MESSAGE_TEXT&#x27;, &#x27;SETS&#x27;, &#x27;WRITE&#x27;, &#x27;CASCADE&#x27;, &#x27;ADD&#x27;, &#x27;CORR&#x27;, &#x27;ADA&#x27;, &#x27;DYNAMIC_FUNCTION&#x27;, &#x27;HIERARCHY&#x27;, &#x27;OIDS&#x27;, &#x27;CARDINALITY&#x27;, &#x27;DELIMITERS&#x27;, &#x27;STATE&#x27;, &#x27;NUMBER&#x27;, &#x27;SYSTEM&#x27;, &#x27;PREFIX&#x27;, &#x27;MULTISET&#x27;, &#x27;LOGIN&#x27;, &#x27;THAN&#x27;, &#x27;EXCLUSIVE&#x27;, &#x27;VARYING&#x27;, &#x27;MAXVALUE&#x27;, &#x27;ALSO&#x27;, &#x27;UNCOMMITTED&#x27;, &#x27;SQLEXCEPTION&#x27;, &#x27;OPERATION&#x27;, &#x27;DAY&#x27;, &#x27;CYCLE&#x27;, &#x27;CUBE&#x27;, &#x27;SHOW&#x27;, &#x27;CUME_DIST&#x27;, &#x27;CASCADED&#x27;, &#x27;FORTRAN&#x27;, &#x27;AT&#x27;, &#x27;SCOPE_CATALOG&#x27;, &#x27;LOCAL&#x27;, &#x27;IMPLICIT&#x27;, &#x27;XMLBINARY&#x27;, &#x27;TEMP&#x27;, &#x27;SELF&#x27;, &#x27;CONNECTION_NAME&#x27;, &#x27;NESTING&#x27;, &#x27;SCROLL&#x27;]), &#x27;jdbc:sqlite&#x27;: set([&#x27;TRANSACTION&#x27;, &#x27;THEN&#x27;, &#x27;EXPLAIN&#x27;, &#x27;VACUUM&#x27;, &#x27;CURRENT_DATE&#x27;, &#x27;LIMIT&#x27;, &#x27;ORDER&#x27;, &#x27;RAISE&#x27;, &#x27;TABLE&#x27;, &#x27;UNIQUE&#x27;, &#x27;EXCEPT&#x27;, &#x27;USING&#x27;, &#x27;ACTION&#x27;, &#x27;CHECK&#x27;, &#x27;FULL&#x27;, &#x27;NATURAL&#x27;, &#x27;GLOB&#x27;, &#x27;TRIGGER&#x27;, &#x27;COLLATE&#x27;, &#x27;ESCAPE&#x27;, &#x27;DETACH&#x27;, &#x27;WHERE&#x27;, &#x27;BEFORE&#x27;, &#x27;ON&#x27;, &#x27;OF&#x27;, &#x27;AFTER&#x27;, &#x27;PRIMARY&#x27;, &#x27;DEFERRED&#x27;, &#x27;ABORT&#x27;, &#x27;VALUES&#x27;, &#x27;OR&#x27;, &#x27;DELETE&#x27;, &#x27;INDEX&#x27;, &#x27;GROUP&#x27;, &#x27;FOREIGN&#x27;, &#x27;RESTRICT&#x27;, &#x27;CURRENT_TIMESTAMP&#x27;, &#x27;NOTNULL&#x27;, &#x27;ROLLBACK&#x27;, &#x27;SELECT&#x27;, &#x27;DEFERRABLE&#x27;, &#x27;BEGIN&#x27;, &#x27;TEMP&#x27;, &#x27;ATTACH&#x27;, &#x27;DISTINCT&#x27;, &#x27;SAVEPOINT&#x27;, &#x27;BY&#x27;, &#x27;IS&#x27;, &#x27;ROW&#x27;, &#x27;END&#x27;, &#x27;FOR&#x27;, &#x27;UNION&#x27;, &#x27;UPDATE&#x27;, &#x27;VIRTUAL&#x27;, &#x27;ELSE&#x27;, &#x27;OFFSET&#x27;, &#x27;INDEXED&#x27;, &#x27;INSTEAD&#x27;, &#x27;AND&#x27;, &#x27;REINDEX&#x27;, &#x27;INITIALLY&#x27;, &#x27;NOT&#x27;, &#x27;VIEW&#x27;, &#x27;PLAN&#x27;, &#x27;CURRENT_TIME&#x27;, &#x27;PRAGMA&#x27;, &#x27;DEFAULT&#x27;, &#x27;CROSS&#x27;, &#x27;RELEASE&#x27;, &#x27;REFERENCES&#x27;, &#x27;REGEXP&#x27;, &#x27;CASE&#x27;, &#x27;SET&#x27;, &#x27;NO&#x27;, &#x27;COLUMN&#x27;, &#x27;DROP&#x27;, &#x27;REPLACE&#x27;, &#x27;ASC&#x27;, &#x27;CAST&#x27;, &#x27;COMMIT&#x27;, &#x27;DESC&#x27;, &#x27;LEFT&#x27;, &#x27;OUTER&#x27;, &#x27;CASCADE&#x27;, &#x27;ADD&#x27;, &#x27;BETWEEN&#x27;, &#x27;FAIL&#x27;, &#x27;MATCH&#x27;, &#x27;ALL&#x27;, &#x27;JOIN&#x27;, &#x27;LIKE&#x27;, &#x27;DATABASE&#x27;, &#x27;IGNORE&#x27;, &#x27;KEY&#x27;, &#x27;EACH&#x27;, &#x27;QUERY&#x27;, &#x27;RENAME&#x27;, &#x27;AUTOINCREMENT&#x27;, &#x27;NULL&#x27;, &#x27;EXCLUSIVE&#x27;, &#x27;TEMPORARY&#x27;, &#x27;CONSTRAINT&#x27;, &#x27;CREATE&#x27;, &#x27;WHEN&#x27;, &#x27;IMMEDIATE&#x27;, &#x27;TO&#x27;, &#x27;CONFLICT&#x27;, &#x27;EXISTS&#x27;, &#x27;INSERT&#x27;, &#x27;INTO&#x27;, &#x27;ISNULL&#x27;, &#x27;AS&#x27;, &#x27;INNER&#x27;, &#x27;INTERSECT&#x27;, &#x27;IN&#x27;, &#x27;ANALYZE&#x27;, &#x27;ALTER&#x27;, &#x27;IF&#x27;, &#x27;RIGHT&#x27;, &#x27;FROM&#x27;, &#x27;HAVING&#x27;]), &#x27;firebird_nonreserved&#x27;: set([&#x27;PRESERVE&#x27;, &#x27;RAND&#x27;, &#x27;COS&#x27;, &#x27;RPAD&#x27;, &#x27;COT&#x27;, &#x27;LIST&#x27;, &#x27;CEIL&#x27;, &#x27;LEAVE&#x27;, &#x27;SIN&#x27;, &#x27;BIN_OR&#x27;, &#x27;PAD&#x27;, &#x27;EXP&#x27;, &#x27;LPAD&#x27;, &#x27;ASCII_VAL&#x27;, &#x27;HASH&#x27;, &#x27;SCALAR_ARRAY&#x27;, &#x27;REPLACE&#x27;, &#x27;LOG10&#x27;, &#x27;ROUND&#x27;, &#x27;UPDATING&#x27;, &#x27;LOG&#x27;, &#x27;COMMENT&#x27;, &#x27;ASIN&#x27;, &#x27;ASCII_CHAR&#x27;, &#x27;LAST&#x27;, &#x27;POWER&#x27;, &#x27;RETURNING&#x27;, &#x27;LN&#x27;, &#x27;FLOOR&#x27;, &#x27;MAXVALUE&#x27;, &#x27;SPACE&#x27;, &#x27;NEXT&#x27;, &#x27;DECODE&#x27;, &#x27;COALESCE&#x27;, &#x27;DATEADD&#x27;, &#x27;IIF&#x27;, &#x27;TAN&#x27;, &#x27;BLOCK&#x27;, &#x27;BIN_AND&#x27;, &#x27;DATEDIFF&#x27;, &#x27;ACOS&#x27;, &#x27;PI&#x27;, &#x27;NULLIF&#x27;, &#x27;TRUNC&#x27;, &#x27;MILLISECOND&#x27;, &#x27;OVERLAY&#x27;, &#x27;PLACING&#x27;, &#x27;BIN_SHR&#x27;, &#x27;BIN_XOR&#x27;, &#x27;ATAN&#x27;, &#x27;SEQUENCE&#x27;, &#x27;WEEK&#x27;, &#x27;LOCK&#x27;, &#x27;NULLS&#x27;, &#x27;SIGN&#x27;, &#x27;ABS&#x27;, &#x27;STATEMENT&#x27;, &#x27;TEMPORARY&#x27;, &#x27;GEN_UUID&#x27;, &#x27;BIN_SHL&#x27;, &#x27;DIFFERENCE&#x27;, &#x27;MATCHING&#x27;, &#x27;REVERSE&#x27;, &#x27;INSERTING&#x27;, &#x27;CEILING&#x27;, &#x27;SINH&#x27;, &#x27;BACKUP&#x27;, &#x27;TANH&#x27;, &#x27;ACCENT&#x27;, &#x27;SQRT&#x27;, &#x27;MINVALUE&#x27;, &#x27;ATAN2&#x27;, &#x27;GENERATED&#x27;, &#x27;COSH&#x27;, &#x27;ALWAYS&#x27;, &#x27;COLLATION&#x27;, &#x27;MOD&#x27;, &#x27;DELETING&#x27;, &#x27;RESTART&#x27;, &#x27;MATCHED&#x27;]), &#x27;mongodb_nonreserved&#x27;: set([&#x27;SAFE&#x27;]), &#x27;informix&#x27;: set([&#x27;THEN&#x27;, &#x27;GROUP&#x27;, &#x27;MIN&#x27;, &#x27;END&#x27;, &#x27;BY&#x27;, &#x27;SELECT&#x27;, &#x27;CASE&#x27;, &#x27;INSERT&#x27;, &#x27;SET&#x27;, &#x27;DISTINCT&#x27;, &#x27;CREATE&#x27;, &#x27;DROP&#x27;, &#x27;WHEN&#x27;, &#x27;ORDER&#x27;, &#x27;ALTER&#x27;, &#x27;LEFT&#x27;, &#x27;OUTER&#x27;, &#x27;FOR&#x27;, &#x27;UPDATE&#x27;, &#x27;ELSE&#x27;, &#x27;AS&#x27;, &#x27;INNER&#x27;, &#x27;IN&#x27;, &#x27;JOIN&#x27;, &#x27;WHERE&#x27;, &#x27;IF&#x27;, &#x27;AND&#x27;, &#x27;ON&#x27;, &#x27;FROM&#x27;, &#x27;LIKE&#x27;, &#x27;MAX&#x27;, &#x27;OR&#x27;, &#x27;LOOP&#x27;, &#x27;DELETE&#x27;]), &#x27;common&#x27;: set([&#x27;THEN&#x27;, &#x27;GROUP&#x27;, &#x27;MIN&#x27;, &#x27;END&#x27;, &#x27;BY&#x27;, &#x27;SELECT&#x27;, &#x27;CASE&#x27;, &#x27;INSERT&#x27;, &#x27;SET&#x27;, &#x27;DISTINCT&#x27;, &#x27;CREATE&#x27;, &#x27;DROP&#x27;, &#x27;WHEN&#x27;, &#x27;ORDER&#x27;, &#x27;ALTER&#x27;, &#x27;LEFT&#x27;, &#x27;OUTER&#x27;, &#x27;FOR&#x27;, &#x27;UPDATE&#x27;, &#x27;ELSE&#x27;, &#x27;AS&#x27;, &#x27;INNER&#x27;, &#x27;IN&#x27;, &#x27;JOIN&#x27;, &#x27;WHERE&#x27;, &#x27;IF&#x27;, &#x27;AND&#x27;, &#x27;ON&#x27;, &#x27;FROM&#x27;, &#x27;LIKE&#x27;, &#x27;MAX&#x27;, &#x27;OR&#x27;, &#x27;LOOP&#x27;, &#x27;DELETE&#x27;]), &#x27;all&#x27;: set([&#x27;SYSDATE&#x27;, &#x27;EXECUTE&#x27;, &#x27;DYNAMIC_FUNCTION_CODE&#x27;, &#x27;GENERATOR&#x27;, &#x27;SIMPLE&#x27;, &#x27;TEXT&#x27;, &#x27;EXPLAIN&#x27;, &#x27;ERRLVL&#x27;, &#x27;OCTET_LENGTH&#x27;, &#x27;OPTIONALLY&#x27;, &#x27;ROUTINE_CATALOG&#x27;, &#x27;SYSID&#x27;, &#x27;CONSTRAINT_NAME&#x27;, &#x27;LPAD&#x27;, &#x27;SIN&#x27;, &#x27;CURRENT_ROLE&#x27;, &#x27;FORCE&#x27;, &#x27;POWER&#x27;, &#x27;IMPLEMENTATION&#x27;, &#x27;QUOTE&#x27;, &#x27;PRECEDING&#x27;, &#x27;DENSE_RANK&#x27;, &#x27;NUMERIC&#x27;, &#x27;SPECIFIC_NAME&#x27;, &#x27;LOCATOR&#x27;, &#x27;COLUMNS&#x27;, &#x27;STRIP&#x27;, &#x27;ACTION&#x27;, &#x27;TRANSLATION&#x27;, &#x27;WEEK&#x27;, &#x27;VAR_SAMP&#x27;, &#x27;FULL&#x27;, &#x27;DEFAULTS&#x27;, &#x27;UPPER&#x27;, &#x27;COMPRESS&#x27;, &#x27;XMLSCHEMA&#x27;, &#x27;TRIM_ARRAY&#x27;, &#x27;LEAST&#x27;, &#x27;CURRENT&#x27;, &#x27;P&#x27;, &#x27;VERSION&#x27;, &#x27;OTHERS&#x27;, &#x27;GO&#x27;, &#x27;DISCONNECT&#x27;, &#x27;DETACH&#x27;, &#x27;SIMILAR&#x27;, &#x27;CURRENT_SCHEMA&#x27;, &#x27;MINUTE&#x27;, &#x27;GDSCODE&#x27;, &#x27;MAP&#x27;, &#x27;INSTANTIABLE&#x27;, &#x27;MAX&#x27;, &#x27;LAG&#x27;, &#x27;SUBCLASS_ORIGIN&#x27;, &#x27;PRIMARY&#x27;, &#x27;STABILITY&#x27;, &#x27;INSTANCE&#x27;, &#x27;ONLY&#x27;, &#x27;VALUES&#x27;, &#x27;USER_DEFINED_TYPE_NAME&#x27;, &#x27;LOOP&#x27;, &#x27;VIEW&#x27;, &#x27;ACCESSIBLE&#x27;, &#x27;RAW_PARTITIONS&#x27;, &#x27;DUAL&#x27;, &#x27;RECREATE&#x27;, &#x27;HOLD&#x27;, &#x27;FOREIGN&#x27;, &#x27;CURRENT_TIMESTAMP&#x27;, &#x27;USER&#x27;, &#x27;NOTNULL&#x27;, &#x27;ASCII_VAL&#x27;, &#x27;SHADOW&#x27;, &#x27;SELECT&#x27;, &#x27;PREORDER&#x27;, &#x27;DATETIME_INTERVAL_PRECISION&#x27;, &#x27;TANH&#x27;, &#x27;DEFINED&#x27;, &#x27;TRANSACTION_ACTIVE&#x27;, &#x27;INTERVAL&#x27;, &#x27;ROLLUP&#x27;, &#x27;LOG_BUFFER_SIZE&#x27;, &#x27;SNAPSHOT&#x27;, &#x27;LOCATION&#x27;, &#x27;POSITION&#x27;, &#x27;MODIFIES&#x27;, &#x27;CONSTRAINTS&#x27;, &#x27;STARTING&#x27;, &#x27;UNNEST&#x27;, &#x27;DEFINER&#x27;, &#x27;TRUNC&#x27;, &#x27;LOAD&#x27;, &#x27;NFD&#x27;, &#x27;ROLLBACK&#x27;, &#x27;RECURSIVE&#x27;, &#x27;SEQUENCE&#x27;, &#x27;ASYMMETRIC&#x27;, &#x27;LATERAL&#x27;, &#x27;DETERMINISTIC&#x27;, &#x27;BLOBEDIT&#x27;, &#x27;ELSE&#x27;, &#x27;FLAG&#x27;, &#x27;VALIDATOR&#x27;, &#x27;NOTIFY&#x27;, &#x27;UNDER&#x27;, &#x27;DEBUG&#x27;, &#x27;REGEXP&#x27;, &#x27;VALIDATE&#x27;, &#x27;IDENTITY&#x27;, &#x27;NCHAR&#x27;, &#x27;COMPLETION&#x27;, &#x27;BREADTH&#x27;, &#x27;REINDEX&#x27;, &#x27;VERBOSE&#x27;, &#x27;INT&#x27;, &#x27;KEY_MEMBER&#x27;, &#x27;XMLQUERY&#x27;, &#x27;FILTER&#x27;, &#x27;ORDINALITY&#x27;, &#x27;NOLOGIN&#x27;, &#x27;BLOB&#x27;, &#x27;XMLVALIDATE&#x27;, &#x27;UNBOUNDED&#x27;, &#x27;NOT&#x27;, &#x27;USER_DEFINED_TYPE_CODE&#x27;, &#x27;TRIGGER_NAME&#x27;, &#x27;NTILE&#x27;, &#x27;MATCHED&#x27;, &#x27;REAL&#x27;, &#x27;ALSO&#x27;, &#x27;CHECK_POINT_LEN&#x27;, &#x27;RAISE&#x27;, &#x27;FREETEXT&#x27;, &#x27;READ&#x27;, &#x27;DISK&#x27;, &#x27;RETURNING_VALUES&#x27;, &#x27;READ_WRITE&#x27;, &#x27;COSH&#x27;, &#x27;COLLECT&#x27;, &#x27;FUSION&#x27;, &#x27;INACTIVE&#x27;, &#x27;SEPARATOR&#x27;, &#x27;ENCLOSED&#x27;, &#x27;NEXT&#x27;, &#x27;REF&#x27;, &#x27;FETCH&#x27;, &#x27;RETURNING&#x27;, &#x27;THAN&#x27;, &#x27;DROP&#x27;, &#x27;CATALOG_NAME&#x27;, &#x27;RDB$DB_KEY&#x27;, &#x27;SCHEMA_NAME&#x27;, &#x27;COMMITTED&#x27;, &#x27;TABLE&#x27;, &#x27;DOCUMENT&#x27;, &#x27;EXTRACT&#x27;, &#x27;LEFT&#x27;, &#x27;NTH_VALUE&#x27;, &#x27;FULLTEXT&#x27;, &#x27;WAITFOR&#x27;, &#x27;INPUT_TYPE&#x27;, &#x27;PLACING&#x27;, &#x27;ILIKE&#x27;, &#x27;VAR_POP&#x27;, &#x27;ELEMENT&#x27;, &#x27;CONTENT&#x27;, &#x27;REASSIGN&#x27;, &#x27;HOST&#x27;, &#x27;XMLFOREST&#x27;, &#x27;SPACE&#x27;, &#x27;RESERVING&#x27;, &#x27;TAN&#x27;, &#x27;RECHECK&#x27;, &#x27;PARAMETER_MODE&#x27;, &#x27;QUIT&#x27;, &#x27;ALL&#x27;, &#x27;JOIN&#x27;, &#x27;LIKE&#x27;, &#x27;DATABASE&#x27;, &#x27;WHENEVER&#x27;, &#x27;MEMBER&#x27;, &#x27;PAGE_SIZE&#x27;, &#x27;NATIONAL &#x27;, &#x27;ESCAPED&#x27;, &#x27;SECOND_MICROSECOND&#x27;, &#x27;INT1&#x27;, &#x27;PAGE&#x27;, &#x27;STRUCTURE&#x27;, &#x27;AUDIT&#x27;, &#x27;REGR_SLOPE&#x27;, &#x27;NFC&#x27;, &#x27;CHARACTERS&#x27;, &#x27;CLOB&#x27;, &#x27;UNTYPED&#x27;, &#x27;TOP&#x27;, &#x27;DESCRIBE&#x27;, &#x27;LINES&#x27;, &#x27;AT&#x27;, &#x27;VARCHAR2&#x27;, &#x27;NORMALIZED&#x27;, &#x27;SQLERROR&#x27;, &#x27;CONSTRUCTOR&#x27;, &#x27;DATE&#x27;, &#x27;OFF&#x27;, &#x27;HOUR_SECOND&#x27;, &#x27;DATA&#x27;, &#x27;USAGE&#x27;, &#x27;SMALLINT&#x27;, &#x27;ASIN&#x27;, &#x27;GEN_UUID&#x27;, &#x27;DATETIME_INTERVAL_CODE&#x27;, &#x27;PARAMETERS&#x27;, &#x27;SSL&#x27;, &#x27;LN&#x27;, &#x27;LEVEL&#x27;, &#x27;CURRENT_TRANSACTION&#x27;, &#x27;DATEADD&#x27;, &#x27;IIF&#x27;, &#x27;COLLATION_SCHEMA&#x27;, &#x27;ITERATE&#x27;, &#x27;NATIONAL&#x27;, &#x27;A&#x27;, &#x27;COMMAND_FUNCTION&#x27;, &#x27;XOR&#x27;, &#x27;COMPUTED&#x27;, &#x27;ABSENT&#x27;, &#x27;KEYS&#x27;, &#x27;REGR_SXX&#x27;, &#x27;REGR_SXY&#x27;, &#x27;ABS&#x27;, &#x27;DISPATCH&#x27;, &#x27;INTERSECT&#x27;, &#x27;FOUND&#x27;, &#x27;COLLATION_NAME&#x27;, &#x27;DAY_MICROSECOND&#x27;, &#x27;AVG&#x27;, &#x27;PROC&#x27;, &#x27;SIGNAL&#x27;, &#x27;CHARACTER_SET_SCHEMA&#x27;, &#x27;BROWSE&#x27;, &#x27;GENERATED&#x27;, &#x27;CALL&#x27;, &#x27;LINENO&#x27;, &#x27;BITVAR&#x27;, &#x27;CLUSTERED&#x27;, &#x27;MESSAGE&#x27;, &#x27;BACKUP&#x27;, &#x27;UTC_DATE&#x27;, &#x27;RESET&#x27;, &#x27;ASENSITIVE&#x27;, &#x27;TRANSACTION&#x27;, &#x27;OPENROWSET&#x27;, &#x27;MIN&#x27;, &#x27;LANCOMPILER&#x27;, &#x27;LC_CTYPE&#x27;, &#x27;PARAMETER_NAME&#x27;, &#x27;BIN_SHL&#x27;, &#x27;CURRENT_DATE&#x27;, &#x27;VALID&#x27;, &#x27;LIMIT&#x27;, &#x27;FILE&#x27;, &#x27;CURSOR_NAME&#x27;, &#x27;INITIALIZE&#x27;, &#x27;DEREF&#x27;, &#x27;WITH&#x27;, &#x27;OPTIMIZE&#x27;, &#x27;FREETEXTTABLE&#x27;, &#x27;DUMP&#x27;, &#x27;XMLAGG&#x27;, &#x27;MESSAGE_OCTET_LENGTH&#x27;, &#x27;LOCALTIMESTAMP&#x27;, &#x27;SESSION_USER&#x27;, &#x27;DECLARE&#x27;, &#x27;DECODE&#x27;, &#x27;RAW&#x27;, &#x27;EVERY&#x27;, &#x27;NAMES&#x27;, &#x27;CREATEUSER&#x27;, &#x27;CHARACTERISTICS&#x27;, &#x27;CHECK&#x27;, &#x27;CONDITION&#x27;, &#x27;MOVE&#x27;, &#x27;DICTIONARY&#x27;, &#x27;ENUM&#x27;, &#x27;SPECIFICTYPE&#x27;, &#x27;URI&#x27;, &#x27;OCTETS&#x27;, &#x27;RETURNS&#x27;, &#x27;SQLCODE&#x27;, &#x27;EXCLUDE&#x27;, &#x27;MAX_CARDINALITY&#x27;, &#x27;PARTIAL&#x27;, &#x27;ACTIVE&#x27;, &#x27;MATCHING&#x27;, &#x27;FIRST&#x27;, &#x27;CHAR&#x27;, &#x27;MESSAGE_LENGTH&#x27;, &#x27;ENCRYPTED&#x27;, &#x27;PRIVILEGES&#x27;, &#x27;CONTAINS&#x27;, &#x27;WIDTH_BUCKET&#x27;, &#x27;MONTH&#x27;, &#x27;OUTFILE&#x27;, &#x27;CATALOG&#x27;, &#x27;ABORT&#x27;, &#x27;SAVE&#x27;, &#x27;MLSLABEL&#x27;, &#x27;LONGBLOB&#x27;, &#x27;TRANSFORMS&#x27;, &#x27;SCALE&#x27;, &#x27;BASED&#x27;, &#x27;TRUNCATE&#x27;, &#x27;DAY_SECOND&#x27;, &#x27;ACCENT&#x27;, &#x27;SCALAR_ARRAY&#x27;, &#x27;SOME&#x27;, &#x27;TRANSFORM&#x27;, &#x27;DELAYED&#x27;, &#x27;BIN_OR&#x27;, &#x27;YEAR_MONTH&#x27;, &#x27;CURRENT_USER&#x27;, &#x27;FOLLOWING&#x27;, &#x27;OFFLINE&#x27;, &#x27;TRANSLATE&#x27;, &#x27;FINAL&#x27;, &#x27;LINEAR&#x27;, &#x27;SUPERUSER&#x27;, &#x27;DENY&#x27;, &#x27;TEMP&#x27;, &#x27;XMLPARSE&#x27;, &#x27;XMLROOT&#x27;, &#x27;USER_DEFINED_TYPE_SCHEMA&#x27;, &#x27;MINIMUM&#x27;, &#x27;SETUSER&#x27;, &#x27;STABLE&#x27;, &#x27;COBOL&#x27;, &#x27;DEALLOCATE&#x27;, &#x27;BACKWARD&#x27;, &#x27;FUNCTION&#x27;, &#x27;VARCHARACTER&#x27;, &#x27;END&#x27;, &#x27;G&#x27;, &#x27;PARSER&#x27;, &#x27;FREE_IT&#x27;, &#x27;EXCEPTION&#x27;, &#x27;RANGE&#x27;, &#x27;MINUTE_MICROSECOND&#x27;, &#x27;ENTRY_POINT&#x27;, &#x27;TERMINATOR&#x27;, &#x27;NCLOB&#x27;, &#x27;CSV&#x27;, &#x27;WRITETEXT&#x27;, &#x27;UPDATE&#x27;, &#x27;LEAD&#x27;, &#x27;OFFSETS&#x27;, &#x27;TIMESTAMP&#x27;, &#x27;SQLWARNING&#x27;, &#x27;TERMINATE&#x27;, &#x27;TSEQUAL&#x27;, &#x27;CHAR_LENGTH&#x27;, &#x27;STRICT&#x27;, &#x27;DATEDIFF&#x27;, &#x27;CONTINUE&#x27;, &#x27;TIME&#x27;, &#x27;TINYBLOB&#x27;, &#x27;DELETING&#x27;, &#x27;POST_EVENT&#x27;, &#x27;CURRENT_TIME&#x27;, &#x27;SUBSTRING_REGEX&#x27;, &#x27;SINGULAR&#x27;, &#x27;UNKNOWN&#x27;, &#x27;SECTION&#x27;, &#x27;MAX_SEGMENT&#x27;, &#x27;SYMMETRIC&#x27;, &#x27;VARIABLE&#x27;, &#x27;ATOMIC&#x27;, &#x27;ARRAY_AGG&#x27;, &#x27;RETURN&#x27;, &#x27;ASCENDING&#x27;, &#x27;REVERSE&#x27;, &#x27;NUM_LOG_BUFFERS&#x27;, &#x27;TIMEZONE_MINUTE&#x27;, &#x27;HOUR&#x27;, &#x27;COLUMN&#x27;, &#x27;WORK&#x27;, &#x27;RULE&#x27;, &#x27;ASC&#x27;, &#x27;DISABLE&#x27;, &#x27;ROUTINE_SCHEMA&#x27;, &#x27;BIN_XOR&#x27;, &#x27;VARIADIC&#x27;, &#x27;COMMIT&#x27;, &#x27;DESC&#x27;, &#x27;NULLIF&#x27;, &#x27;XMLCONCAT&#x27;, &#x27;TRIM&#x27;, &#x27;DUMMY&#x27;, &#x27;STDIN&#x27;, &#x27;HASH&#x27;, &#x27;DECIMAL&#x27;, &#x27;PERCENT&#x27;, &#x27;INHERIT&#x27;, &#x27;FREEZE&#x27;, &#x27;NOCREATEDB&#x27;, &#x27;EMPTY&#x27;, &#x27;DIFFERENCE&#x27;, &#x27;MATCH&#x27;, &#x27;WAIT&#x27;, &#x27;LEAVE&#x27;, &#x27;NONCLUSTERED&#x27;, &#x27;ROWS&#x27;, &#x27;FALSE&#x27;, &#x27;PERCENT_RANK&#x27;, &#x27;DBCC&#x27;, &#x27;LC_COLLATE&#x27;, &#x27;TINYTEXT&#x27;, &#x27;LIST&#x27;, &#x27;XMLATTRIBUTES&#x27;, &#x27;BREAK&#x27;, &#x27;DESCRIPTOR&#x27;, &#x27;STDDEV_POP&#x27;, &#x27;XMLELEMENT&#x27;, &#x27;FLOAT8&#x27;, &#x27;KEY&#x27;, &#x27;EACH&#x27;, &#x27;FLOAT4&#x27;, &#x27;INFILE&#x27;, &#x27;DO&#x27;, &#x27;END-EXEC&#x27;, &#x27;NOWAIT&#x27;, &#x27;DEGREE&#x27;, &#x27;ENCODING&#x27;, &#x27;AUTOINCREMENT&#x27;, &#x27;GRANTED&#x27;, &#x27;XMLDECLARATION&#x27;, &#x27;OPERATOR&#x27;, &#x27;TRIGGER_SCHEMA&#x27;, &#x27;DEPTH&#x27;, &#x27;SQRT&#x27;, &#x27;SINH&#x27;, &#x27;TIES&#x27;, &#x27;COLLATION_CATALOG&#x27;, &#x27;PATH&#x27;, &#x27;BIT_LENGTH&#x27;, &#x27;DESTRUCTOR&#x27;, &#x27;PARAMETER&#x27;, &#x27;OPTIONS&#x27;, &#x27;SQL_SMALL_RESULT&#x27;, &#x27;REGR_R2&#x27;, &#x27;BOTH&#x27;, &#x27;VARCHAR&#x27;, &#x27;BASE64&#x27;, &#x27;MINUTE_SECOND&#x27;, &#x27;IMMEDIATE&#x27;, &#x27;ROUND&#x27;, &#x27;REGR_SYY&#x27;, &#x27;INT4&#x27;, &#x27;NUM_LOG_BUFS&#x27;, &#x27;ROW_NUMBER&#x27;, &#x27;INT3&#x27;, &#x27;INT2&#x27;, &#x27;AGGREGATE&#x27;, &#x27;BIT&#x27;, &#x27;YEARDAY&#x27;, &#x27;CALLED&#x27;, &#x27;GROUPING&#x27;, &#x27;FORTRAN&#x27;, &#x27;EXCLUDING&#x27;, &#x27;SUCCESSFUL&#x27;, &#x27;INTO&#x27;, &#x27;M&#x27;, &#x27;ASSERTION&#x27;, &#x27;RESIGNAL&#x27;, &#x27;HEADER&#x27;, &#x27;IDENTITYCOL&#x27;, &#x27;NOAUDIT&#x27;, &#x27;FORWARD&#x27;, &#x27;COPY&#x27;, &#x27;ALTER&#x27;, &#x27;IMMUTABLE&#x27;, &#x27;CEILING&#x27;, &#x27;RIGHT&#x27;, &#x27;FROM&#x27;, &#x27;ZONE&#x27;, &#x27;OPENXML&#x27;, &#x27;FLOAT&#x27;, &#x27;REPLICA&#x27;, &#x27;ROWID&#x27;, &#x27;COLLATION&#x27;, &#x27;OVERRIDING&#x27;, &#x27;PROCEDURAL&#x27;, &#x27;CONSTRAINT_SCHEMA&#x27;, &#x27;INDICATOR&#x27;, &#x27;ENABLE&#x27;, &#x27;CORR&#x27;, &#x27;CONDITION_NUMBER&#x27;, &#x27;OBJECT&#x27;, &#x27;PAD&#x27;, &#x27;EXP&#x27;, &#x27;BEGIN&#x27;, &#x27;VARBINARY&#x27;, &#x27;FAMILY&#x27;, &#x27;ABSOLUTE&#x27;, &#x27;COMMENT&#x27;, &#x27;PARAMETER_SPECIFIC_CATALOG&#x27;, &#x27;CURRENT_DEFAULT_TRANSFORM_GROUP&#x27;, &#x27;SYSTEM_USER&#x27;, &#x27;COMPILETIME&#x27;, &#x27;STARTS&#x27;, &#x27;LESS&#x27;, &#x27;GENERAL&#x27;, &#x27;INIT&#x27;, &#x27;SESSION&#x27;, &#x27;METHOD&#x27;, &#x27;LAST&#x27;, &#x27;OVERLAPS&#x27;, &#x27;WITHIN&#x27;, &#x27;NATURAL&#x27;, &#x27;FLOOR&#x27;, &#x27;BUFFER&#x27;, &#x27;REGR_INTERCEPT&#x27;, &#x27;GLOB&#x27;, &#x27;MODULE&#x27;, &#x27;SIGN&#x27;, &#x27;RELATIVE&#x27;, &#x27;XMLCAST&#x27;, &#x27;COVAR_POP&#x27;, &#x27;WHERE&#x27;, &#x27;SECURITY&#x27;, &#x27;UTC_TIME&#x27;, &#x27;RESTORE&#x27;, &#x27;REGR_AVGY&#x27;, &#x27;INSENSITIVE&#x27;, &#x27;NIL&#x27;, &#x27;READTEXT&#x27;, &#x27;NFKC&#x27;, &#x27;AFTER&#x27;, &#x27;UNLISTEN&#x27;, &#x27;NFKD&#x27;, &#x27;CURSOR&#x27;, &#x27;DEFERRED&#x27;, &#x27;RAISERROR&#x27;, &#x27;HANDLER&#x27;, &#x27;INCLUDING&#x27;, &#x27;ROWGUIDCOL&#x27;, &#x27;ELSEIF&#x27;, &#x27;SHARED&#x27;, &#x27;YES&#x27;, &#x27;RESTART&#x27;, &#x27;BOM&#x27;, &#x27;NORMALIZE&#x27;, &#x27;INDEX&#x27;, &#x27;CONCURRENTLY&#x27;, &#x27;INT8&#x27;, &#x27;GROUP&#x27;, &#x27;HELP&#x27;, &#x27;XMLPI&#x27;, &#x27;MEDIUMINT&#x27;, &#x27;REQUIRE&#x27;, &#x27;PAGELENGTH&#x27;, &#x27;MODIFY&#x27;, &#x27;NO_WRITE_TO_BINLOG&#x27;, &#x27;EXISTING&#x27;, &#x27;LARGE&#x27;, &#x27;STATIC&#x27;, &#x27;WEEKDAY&#x27;, &#x27;RESERV&#x27;, &#x27;OIDS&#x27;, &#x27;RETURNED_OCTET_LENGTH&#x27;, &#x27;CHECKED&#x27;, &#x27;CURRENT_PATH&#x27;, &#x27;NONE&#x27;, &#x27;GET&#x27;, &#x27;DISTINCT&#x27;, &#x27;TRUE&#x27;, &#x27;UNSIGNED&#x27;, &#x27;BY&#x27;, &#x27;SORT&#x27;, &#x27;REPLICATION&#x27;, &#x27;BOOLEAN&#x27;, &#x27;GREATEST&#x27;, &#x27;BIN_AND&#x27;, &#x27;REFERENCING&#x27;, &#x27;PI&#x27;, &#x27;K&#x27;, &#x27;COLUMN_NAME&#x27;, &#x27;TRANSLATE_REGEX&#x27;, &#x27;C&#x27;, &#x27;WITHOUT&#x27;, &#x27;FOR&#x27;, &#x27;NULLS&#x27;, &#x27;PROCEDURE&#x27;, &#x27;VIRTUAL&#x27;, &#x27;ECHO&#x27;, &#x27;PRIOR&#x27;, &#x27;EXTERNAL&#x27;, &#x27;INPUT&#x27;, &#x27;INDEXES&#x27;, &#x27;UPDATETEXT&#x27;, &#x27;UNTIL&#x27;, &#x27;AUTHORIZATION&#x27;, &#x27;AND&#x27;, &#x27;CARDINALITY&#x27;, &#x27;HOLDLOCK&#x27;, &#x27;INITIALLY&#x27;, &#x27;YEAR&#x27;, &#x27;MAXIMUM_SEGMENT&#x27;, &#x27;HIGH_PRIORITY&#x27;, &#x27;CHECKPOINT&#x27;, &#x27;CONNECTION&#x27;, &#x27;GROUP_COMMIT_WAIT&#x27;, &#x27;NOTHING&#x27;, &#x27;ATTRIBUTES&#x27;, &#x27;PARAMETER_SPECIFIC_SCHEMA&#x27;, &#x27;PAGES&#x27;, &#x27;TOP_LEVEL_COUNT&#x27;, &#x27;CORRESPONDING&#x27;, &#x27;THEN&#x27;, &#x27;COS&#x27;, &#x27;SYNONYM&#x27;, &#x27;COT&#x27;, &#x27;ROUTINE&#x27;, &#x27;GLOBAL&#x27;, &#x27;SETOF&#x27;, &#x27;CEIL&#x27;, &#x27;BULK&#x27;, &#x27;INDEXED&#x27;, &#x27;PASCAL&#x27;, &#x27;ISQL&#x27;, &#x27;TABLESPACE&#x27;, &#x27;LONG&#x27;, &#x27;REGR_COUNT&#x27;, &#x27;DESTROY&#x27;, &#x27;EXTERN&#x27;, &#x27;REVOKE&#x27;, &#x27;RESPECT&#x27;, &#x27;CASE&#x27;, &#x27;KEY_TYPE&#x27;, &#x27;MAXEXTENTS&#x27;, &#x27;OLD&#x27;, &#x27;SOURCE&#x27;, &#x27;LOW_PRIORITY&#x27;, &#x27;CASCADED&#x27;, &#x27;ANALYSE&#x27;, &#x27;IDENTIFIED&#x27;, &#x27;XMLCOMMENT&#x27;, &#x27;DATABASES&#x27;, &#x27;CAST&#x27;, &#x27;XMLEXISTS&#x27;, &#x27;CHARACTER_LENGTH&#x27;, &#x27;INCREMENT&#x27;, &#x27;MODULE_NAME&#x27;, &#x27;UNNAMED&#x27;, &#x27;TRUSTED&#x27;, &#x27;SQL_BIG_RESULT&#x27;, &#x27;SAFE&#x27;, &#x27;SHARE&#x27;, &#x27;OVERLAY&#x27;, &#x27;LOCK&#x27;, &#x27;HEX&#x27;, &#x27;FREE&#x27;, &#x27;SECOND&#x27;, &#x27;DESCENDING&#x27;, &#x27;MUMPS&#x27;, &#x27;BETWEEN&#x27;, &#x27;FAIL&#x27;, &#x27;CONVERSION&#x27;, &#x27;TIMEZONE_HOUR&#x27;, &#x27;CURRENT_TRANSFORM_GROUP_FOR_TYPE&#x27;, &#x27;COALESCE&#x27;, &#x27;TRAN&#x27;, &#x27;MANUAL&#x27;, &#x27;RETURNED_SQLSTATE&#x27;, &#x27;OWNED&#x27;, &#x27;IGNORE&#x27;, &#x27;XMLITERATE&#x27;, &#x27;MEDIUMTEXT&#x27;, &#x27;VOLATILE&#x27;, &#x27;TEMPLATE&#x27;, &#x27;OWNER&#x27;, &#x27;SET&#x27;, &#x27;ROWNUM&#x27;, &#x27;DELETE&#x27;, &#x27;TYPE&#x27;, &#x27;PUBLIC&#x27;, &#x27;PLI&#x27;, &#x27;MORE&#x27;, &#x27;RENAME&#x27;, &#x27;MILLISECOND&#x27;, &#x27;XMLNAMESPACES&#x27;, &#x27;LOG&#x27;, &#x27;STDOUT&#x27;, &#x27;BASENAME&#x27;, &#x27;CACHE&#x27;, &#x27;STORAGE&#x27;, &#x27;ZEROFILL&#x27;, &#x27;UNDO&#x27;, &#x27;PURGE&#x27;, &#x27;XMLTEXT&#x27;, &#x27;RPAD&#x27;, &#x27;DIV&#x27;, &#x27;NOSUPERUSER&#x27;, &#x27;UPDATING&#x27;, &#x27;QUERY&#x27;, &#x27;INSERT&#x27;, &#x27;SUSPEND&#x27;, &#x27;DISTINCTROW&#x27;, &#x27;ATAN&#x27;, &#x27;SERVER_NAME&#x27;, &#x27;CLUSTER&#x27;, &#x27;CHECK_POINT_LENGTH&#x27;, &#x27;XMLTABLE&#x27;, &#x27;CREATE&#x27;, &#x27;POSITION_REGEX&#x27;, &#x27;EVENT&#x27;, &#x27;MODE&#x27;, &#x27;STATISTICS&#x27;, &#x27;RETAIN&#x27;, &#x27;CHARACTER_SET_CATALOG&#x27;, &#x27;MASTER_SSL_VERIFY_SERVER_CERT&#x27;, &#x27;CONFLICT&#x27;, &#x27;SCHEMAS&#x27;, &#x27;STYLE&#x27;, &#x27;COMMAND_FUNCTION_CODE&#x27;, &#x27;IDENTITY_INSERT&#x27;, &#x27;EXISTS&#x27;, &#x27;TERMINATED&#x27;, &#x27;LEADING&#x27;, &#x27;IS&#x27;, &#x27;ACCORDING&#x27;, &#x27;CONSTRAINT_CATALOG&#x27;, &#x27;NOCREATEUSER&#x27;, &#x27;ALIAS&#x27;, &#x27;UNLOCK&#x27;, &#x27;PERCENTILE_CONT&#x27;, &#x27;INNER&#x27;, &#x27;IN&#x27;, &#x27;CURRENT_CATALOG&#x27;, &#x27;RESOURCE&#x27;, &#x27;ANALYZE&#x27;, &#x27;PERCENTILE_DISC&#x27;, &#x27;LAST_VALUE&#x27;, &#x27;IF&#x27;, &#x27;TABLESAMPLE&#x27;, &#x27;STRAIGHT_JOIN&#x27;, &#x27;PLANS&#x27;, &#x27;TEXTSIZE&#x27;, &#x27;ALWAYS&#x27;, &#x27;XMLDOCUMENT&#x27;, &#x27;ANY&#x27;, &#x27;ACCESS&#x27;, &#x27;WINDOW&#x27;, &#x27;REPEATABLE&#x27;, &#x27;FILLFACTOR&#x27;, &#x27;ARE&#x27;, &#x27;MOD&#x27;, &#x27;HAVING&#x27;, &#x27;T&#x27;, &#x27;PRESERVE&#x27;, &#x27;NOINHERIT&#x27;, &#x27;POSTFIX&#x27;, &#x27;OVER&#x27;, &#x27;ESCAPE&#x27;, &#x27;MAXVALUE&#x27;, &#x27;BIGINT&#x27;, &#x27;TREAT&#x27;, &#x27;PASSING&#x27;, &#x27;MINUS&#x27;, &#x27;ASCII_CHAR&#x27;, &#x27;SHELL&#x27;, &#x27;UID&#x27;, &#x27;SEARCH&#x27;, &#x27;DAY_HOUR&#x27;, &#x27;DERIVED&#x27;, &#x27;STDDEV_SAMP&#x27;, &#x27;SPECIFIC&#x27;, &#x27;INITIAL&#x27;, &#x27;COVAR_SAMP&#x27;, &#x27;USER_DEFINED_TYPE_CATALOG&#x27;, &#x27;UNENCRYPTED&#x27;, &#x27;DB_KEY&#x27;, &#x27;LIKE_REGEX&#x27;, &#x27;RETURNED_CARDINALITY&#x27;, &#x27;OPENQUERY&#x27;, &#x27;ALLOCATE&#x27;, &#x27;INHERITS&#x27;, &#x27;DAY_MINUTE&#x27;, &#x27;COMPUTE&#x27;, &#x27;GOTO&#x27;, &#x27;GRANT&#x27;, &#x27;ONLINE&#x27;, &#x27;NAMESPACE&#x27;, &#x27;SUBMULTISET&#x27;, &#x27;MERGE&#x27;, &#x27;DELIMITER&#x27;, &#x27;TRIGGER&#x27;, &#x27;GROUP_COMMIT_WAIT_TIME&#x27;, &#x27;VACUUM&#x27;, &#x27;SCOPE&#x27;, &#x27;HOUR_MICROSECOND&#x27;, &#x27;INTERSECTION&#x27;, &#x27;SERIALIZABLE&#x27;, &#x27;CLASS_ORIGIN&#x27;, &#x27;PARAMETER_ORDINAL_POSITION&#x27;, &#x27;ON&#x27;, &#x27;UNIQUE&#x27;, &#x27;INDENT&#x27;, &#x27;SENSITIVE&#x27;, &#x27;EDIT&#x27;, &#x27;OF&#x27;, &#x27;SQL_CALC_FOUND_ROWS&#x27;, &#x27;SUBLIST&#x27;, &#x27;CLASS&#x27;, &#x27;ROWCOUNT&#x27;, &#x27;LENGTH&#x27;, &#x27;COST&#x27;, &#x27;DOUBLE&#x27;, &#x27;KILL&#x27;, &#x27;OUTPUT&#x27;, &#x27;OR&#x27;, &#x27;PARAMETER_SPECIFIC_NAME&#x27;, &#x27;DOMAIN&#x27;, &#x27;UNION&#x27;, &#x27;STATE&#x27;, &#x27;CONFIGURATION&#x27;, &#x27;SCOPE_SCHEMA&#x27;, &#x27;AUTODDL&#x27;, &#x27;ORDERING&#x27;, &#x27;RESTRICT&#x27;, &#x27;CUBE&#x27;, &#x27;CREATEDB&#x27;, &#x27;UESCAPE&#x27;, &#x27;PRINT&#x27;, &#x27;DISCARD&#x27;, &#x27;SERVER&#x27;, &#x27;BLOCK&#x27;, &#x27;NULLABLE&#x27;, &#x27;MEDIUMBLOB&#x27;, &#x27;FIRST_VALUE&#x27;, &#x27;LANGUAGE&#x27;, &#x27;ATTACH&#x27;, &#x27;LOG10&#x27;, &#x27;SAVEPOINT&#x27;, &#x27;OCCURRENCES_REGEX&#x27;, &#x27;DYNAMIC&#x27;, &#x27;READS&#x27;, &#x27;TRIGGER_CATALOG&#x27;, &#x27;CONNECT&#x27;, &#x27;TRANSACTIONS_COMMITTED&#x27;, &#x27;ORDER&#x27;, &#x27;INTEGER&#x27;, &#x27;ACOS&#x27;, &#x27;XMLSERIALIZE&#x27;, &#x27;ROW&#x27;, &#x27;REPEAT&#x27;, &#x27;SQL&#x27;, &#x27;NOCREATEROLE&#x27;, &#x27;CREATEROLE&#x27;, &#x27;INVOKER&#x27;, &#x27;MASTER_HEARTBEAT_PERIOD&#x27;, &#x27;OFFSET&#x27;, &#x27;RELEASE&#x27;, &#x27;INSTEAD&#x27;, &#x27;RECORD_VERSION&#x27;, &#x27;SIZE&#x27;, &#x27;MIDDLEINT&#x27;, &#x27;WHITESPACE&#x27;, &#x27;START&#x27;, &#x27;CHARACTER_SET_NAME&#x27;, &#x27;ATTRIBUTE&#x27;, &#x27;STANDALONE&#x27;, &#x27;NOCHECK&#x27;, &#x27;PRECISION&#x27;, &#x27;LOWER&#x27;, &#x27;SUB_TYPE&#x27;, &#x27;ROW_COUNT&#x27;, &#x27;RETURNED_LENGTH&#x27;, &#x27;BINARY&#x27;, &#x27;RLIKE&#x27;, &#x27;INFIX&#x27;, &#x27;REGR_AVGX&#x27;, &#x27;LISTEN&#x27;, &#x27;RAND&#x27;, &#x27;OPTION&#x27;, &#x27;PREPARE&#x27;, &#x27;DEFAULT&#x27;, &#x27;SUM&#x27;, &#x27;CONTAINSTABLE&#x27;, &#x27;CROSS&#x27;, &#x27;RANK&#x27;, &#x27;PREPARED&#x27;, &#x27;ATAN2&#x27;, &#x27;RUNTIME&#x27;, &#x27;WHILE&#x27;, &#x27;REFERENCES&#x27;, &#x27;EXEC&#x27;, &#x27;NEW&#x27;, &#x27;OVERFLOW&#x27;, &#x27;OPEN&#x27;, &#x27;DISPLAY&#x27;, &#x27;NOAUTO&#x27;, &#x27;SUBSTRING&#x27;, &#x27;COLLATE&#x27;, &#x27;NOCOMPRESS&#x27;, &#x27;BASE_NAME&#x27;, &#x27;NO&#x27;, &#x27;WRAPPER&#x27;, &#x27;CONDITIONAL&#x27;, &#x27;LOG_BUF_SIZE&#x27;, &#x27;REPLACE&#x27;, &#x27;GEN_ID&#x27;, &#x27;SQLSTATE&#x27;, &#x27;CONVERT&#x27;, &#x27;ASSIGNMENT&#x27;, &#x27;CLOSE&#x27;, &#x27;ARRAY&#x27;, &#x27;SCHEMA&#x27;, &#x27;PCTFREE&#x27;, &#x27;RESULT&#x27;, &#x27;OUTER&#x27;, &#x27;ROUTINE_NAME&#x27;, &#x27;ADMIN&#x27;, &#x27;ISOLATION&#x27;, &#x27;HOUR_MINUTE&#x27;, &#x27;SETS&#x27;, &#x27;MAXIMUM&#x27;, &#x27;MESSAGE_TEXT&#x27;, &#x27;WRITE&#x27;, &#x27;CASCADE&#x27;, &#x27;ADD&#x27;, &#x27;DIAGNOSTICS&#x27;, &#x27;STATEMENT&#x27;, &#x27;OUTPUT_TYPE&#x27;, &#x27;DYNAMIC_FUNCTION&#x27;, &#x27;TEMPORARY&#x27;, &#x27;AUTO&#x27;, &#x27;LC_MESSAGES&#x27;, &#x27;HIERARCHY&#x27;, &#x27;CURRENT_CONNECTION&#x27;, &#x27;BERNOULLI&#x27;, &#x27;IGNORE_SERVER_IDS&#x27;, &#x27;MINVALUE&#x27;, &#x27;DEFERRABLE&#x27;, &#x27;ADA&#x27;, &#x27;EXIT&#x27;, &#x27;COUNT&#x27;, &#x27;LEV&#x27;, &#x27;USING&#x27;, &#x27;OUT&#x27;, &#x27;XML&#x27;, &#x27;USE&#x27;, &#x27;SCOPE_NAME&#x27;, &#x27;DELIMITERS&#x27;, &#x27;OPENDATASOURCE&#x27;, &#x27;SPATIAL&#x27;, &#x27;CHARACTER&#x27;, &#x27;NUMBER&#x27;, &#x27;SYSTEM&#x27;, &#x27;TINYINT&#x27;, &#x27;TRANSACTIONS_ROLLED_BACK&#x27;, &#x27;SHUTDOWN&#x27;, &#x27;MULTISET&#x27;, &#x27;LOGIN&#x27;, &#x27;NULL&#x27;, &#x27;TRAILING&#x27;, &#x27;EXCEPT&#x27;, &#x27;CHANGE&#x27;, &#x27;LOCALTIME&#x27;, &#x27;EXCLUSIVE&#x27;, &#x27;DEC&#x27;, &#x27;CONSTRAINT&#x27;, &#x27;VARYING&#x27;, &#x27;WHEN&#x27;, &#x27;MAPPING&#x27;, &#x27;TO&#x27;, &#x27;UNCOMMITTED&#x27;, &#x27;SQLEXCEPTION&#x27;, &#x27;INOUT&#x27;, &#x27;RECONFIGURE&#x27;, &#x27;OPERATION&#x27;, &#x27;DAY&#x27;, &#x27;CYCLE&#x27;, &#x27;PARTITION&#x27;, &#x27;BIN_SHR&#x27;, &#x27;SHOW&#x27;, &#x27;DISTRIBUTED&#x27;, &#x27;CSTRING&#x27;, &#x27;CUME_DIST&#x27;, &#x27;CONTAINING&#x27;, &#x27;VALUE&#x27;, &#x27;ISNULL&#x27;, &#x27;AS&#x27;, &#x27;PLAN&#x27;, &#x27;PRAGMA&#x27;, &#x27;PREFIX&#x27;, &#x27;SCOPE_CATALOG&#x27;, &#x27;BEFORE&#x27;, &#x27;LOCAL&#x27;, &#x27;IMPLICIT&#x27;, &#x27;CONNECTION_NAME&#x27;, &#x27;INSERTING&#x27;, &#x27;XMLBINARY&#x27;, &#x27;CHAIN&#x27;, &#x27;LONGTEXT&#x27;, &#x27;SELF&#x27;, &#x27;LC_TYPE&#x27;, &#x27;UTC_TIMESTAMP&#x27;, &#x27;EQUALS&#x27;, &#x27;NESTING&#x27;, &#x27;LOGFILE&#x27;, &#x27;SCROLL&#x27;]), &#x27;mysql&#x27;: set([&#x27;ASENSITIVE&#x27;, &#x27;SECOND_MICROSECOND&#x27;, &#x27;THEN&#x27;, &#x27;EXPLAIN&#x27;, &#x27;SQL_BIG_RESULT&#x27;, &#x27;CURRENT_DATE&#x27;, &#x27;BIGINT&#x27;, &#x27;KILL&#x27;, &#x27;DUAL&#x27;, &#x27;DAY_SECOND&#x27;, &#x27;VARBINARY&#x27;, &#x27;TRUE&#x27;, &#x27;BY&#x27;, &#x27;FORCE&#x27;, &#x27;RANGE&#x27;, &#x27;DAY_HOUR&#x27;, &#x27;SPATIAL&#x27;, &#x27;LOCALTIMESTAMP&#x27;, &#x27;LONG&#x27;, &#x27;SPECIFIC&#x27;, &#x27;READ&#x27;, &#x27;UTC_TIME&#x27;, &#x27;CHECK&#x27;, &#x27;CONDITION&#x27;, &#x27;NATURAL&#x27;, &#x27;GRANT&#x27;, &#x27;PRIMARY&#x27;, &#x27;TRIGGER&#x27;, &#x27;COLLATE&#x27;, &#x27;DATABASES&#x27;, &#x27;JOIN&#x27;, &#x27;UNIQUE&#x27;, &#x27;WHERE&#x27;, &#x27;DECLARE&#x27;, &#x27;PROCEDURE&#x27;, &#x27;BEFORE&#x27;, &#x27;BINARY&#x27;, &#x27;INSENSITIVE&#x27;, &#x27;DOUBLE&#x27;, &#x27;SQL_CALC_FOUND_ROWS&#x27;, &#x27;DELAYED&#x27;, &#x27;INT8&#x27;, &#x27;CURSOR&#x27;, &#x27;OUTFILE&#x27;, &#x27;READS&#x27;, &#x27;VALUES&#x27;, &#x27;SQL&#x27;, &#x27;ELSEIF&#x27;, &#x27;LIMIT&#x27;, &#x27;OR&#x27;, &#x27;LOOP&#x27;, &#x27;DELETE&#x27;, &#x27;ACCESSIBLE&#x27;, &#x27;INDEX&#x27;, &#x27;CONVERT&#x27;, &#x27;GROUP&#x27;, &#x27;MEDIUMINT&#x27;, &#x27;REQUIRE&#x27;, &#x27;TINYBLOB&#x27;, &#x27;FOREIGN&#x27;, &#x27;LEAVE&#x27;, &#x27;TERMINATED&#x27;, &#x27;CURRENT_TIMESTAMP&#x27;, &#x27;REFERENCES&#x27;, &#x27;CURRENT_USER&#x27;, &#x27;DEC&#x27;, &#x27;INOUT&#x27;, &#x27;IGNORE&#x27;, &#x27;MEDIUMBLOB&#x27;, &#x27;DISTINCT&#x27;, &#x27;WITH&#x27;, &#x27;INTERVAL&#x27;, &#x27;UNSIGNED&#x27;, &#x27;ALTER&#x27;, &#x27;NO_WRITE_TO_BINLOG&#x27;, &#x27;FLOAT8&#x27;, &#x27;MODIFIES&#x27;, &#x27;STARTING&#x27;, &#x27;IS&#x27;, &#x27;LOAD&#x27;, &#x27;VARCHARACTER&#x27;, &#x27;REPEAT&#x27;, &#x27;FOR&#x27;, &#x27;UNION&#x27;, &#x27;DETERMINISTIC&#x27;, &#x27;UPDATE&#x27;, &#x27;ELSE&#x27;, &#x27;UNLOCK&#x27;, &#x27;HIGH_PRIORITY&#x27;, &#x27;MINUTE_MICROSECOND&#x27;, &#x27;MASTER_HEARTBEAT_PERIOD&#x27;, &#x27;USING&#x27;, &#x27;RELEASE&#x27;, &#x27;REGEXP&#x27;, &#x27;DAY_MINUTE&#x27;, &#x27;AND&#x27;, &#x27;MIDDLEINT&#x27;, &#x27;INT&#x27;, &#x27;MASTER_SSL_VERIFY_SERVER_CERT&#x27;, &#x27;SQLWARNING&#x27;, &#x27;NUMERIC&#x27;, &#x27;PRECISION&#x27;, &#x27;SSL&#x27;, &#x27;CONTINUE&#x27;, &#x27;BLOB&#x27;, &#x27;NOT&#x27;, &#x27;RLIKE&#x27;, &#x27;LONGBLOB&#x27;, &#x27;MOD&#x27;, &#x27;REAL&#x27;, &#x27;CURRENT_TIME&#x27;, &#x27;OPTION&#x27;, &#x27;DEFAULT&#x27;, &#x27;CROSS&#x27;, &#x27;CHAR&#x27;, &#x27;SENSITIVE&#x27;, &#x27;WHILE&#x27;, &#x27;TO&#x27;, &#x27;LOCK&#x27;, &#x27;ENCLOSED&#x27;, &#x27;SQL_SMALL_RESULT&#x27;, &#x27;RETURN&#x27;, &#x27;ORDER&#x27;, &#x27;FETCH&#x27;, &#x27;CASE&#x27;, &#x27;SET&#x27;, &#x27;COLUMN&#x27;, &#x27;LOW_PRIORITY&#x27;, &#x27;DROP&#x27;, &#x27;REPLACE&#x27;, &#x27;ASC&#x27;, &#x27;SQLSTATE&#x27;, &#x27;TABLE&#x27;, &#x27;IF&#x27;, &#x27;LEFT&#x27;, &#x27;FULLTEXT&#x27;, &#x27;OUTER&#x27;, &#x27;SCHEMA&#x27;, &#x27;LINES&#x27;, &#x27;HOUR_MINUTE&#x27;, &#x27;HOUR_MICROSECOND&#x27;, &#x27;USAGE&#x27;, &#x27;WRITE&#x27;, &#x27;CASCADE&#x27;, &#x27;ADD&#x27;, &#x27;BETWEEN&#x27;, &#x27;STRAIGHT_JOIN&#x27;, &#x27;MATCH&#x27;, &#x27;RESTRICT&#x27;, &#x27;ALL&#x27;, &#x27;FALSE&#x27;, &#x27;LIKE&#x27;, &#x27;DATABASE&#x27;, &#x27;INTEGER&#x27;, &#x27;TINYTEXT&#x27;, &#x27;IGNORE_SERVER_IDS&#x27;, &#x27;ESCAPED&#x27;, &#x27;MEDIUMTEXT&#x27;, &#x27;EXIT&#x27;, &#x27;KEY&#x27;, &#x27;EACH&#x27;, &#x27;FLOAT4&#x27;, &#x27;ON&#x27;, &#x27;OUT&#x27;, &#x27;INFILE&#x27;, &#x27;RENAME&#x27;, &#x27;READ_WRITE&#x27;, &#x27;REVOKE&#x27;, &#x27;YEAR_MONTH&#x27;, &#x27;DESCRIBE&#x27;, &#x27;CHARACTER&#x27;, &#x27;ZEROFILL&#x27;, &#x27;UNDO&#x27;, &#x27;PURGE&#x27;, &#x27;TINYINT&#x27;, &#x27;DISTINCTROW&#x27;, &#x27;SHOW&#x27;, &#x27;DIV&#x27;, &#x27;NULL&#x27;, &#x27;TRAILING&#x27;, &#x27;HOUR_SECOND&#x27;, &#x27;CHANGE&#x27;, &#x27;LOCALTIME&#x27;, &#x27;SMALLINT&#x27;, &#x27;BOTH&#x27;, &#x27;VARCHAR&#x27;, &#x27;SEPARATOR&#x27;, &#x27;CONSTRAINT&#x27;, &#x27;CREATE&#x27;, &#x27;VARYING&#x27;, &#x27;WHEN&#x27;, &#x27;MAXVALUE&#x27;, &#x27;INT4&#x27;, &#x27;SQLEXCEPTION&#x27;, &#x27;INT1&#x27;, &#x27;SELECT&#x27;, &#x27;INT3&#x27;, &#x27;INT2&#x27;, &#x27;ITERATE&#x27;, &#x27;OPTIMIZE&#x27;, &#x27;DECIMAL&#x27;, &#x27;USE&#x27;, &#x27;SCHEMAS&#x27;, &#x27;OPTIONALLY&#x27;, &#x27;XOR&#x27;, &#x27;LINEAR&#x27;, &#x27;EXISTS&#x27;, &#x27;INSERT&#x27;, &#x27;KEYS&#x27;, &#x27;LEADING&#x27;, &#x27;INTO&#x27;, &#x27;RESIGNAL&#x27;, &#x27;AS&#x27;, &#x27;INNER&#x27;, &#x27;IN&#x27;, &#x27;ANALYZE&#x27;, &#x27;DESC&#x27;, &#x27;DAY_MICROSECOND&#x27;, &#x27;RIGHT&#x27;, &#x27;FROM&#x27;, &#x27;LONGTEXT&#x27;, &#x27;SIGNAL&#x27;, &#x27;FLOAT&#x27;, &#x27;UTC_TIMESTAMP&#x27;, &#x27;UTC_DATE&#x27;, &#x27;MINUTE_SECOND&#x27;, &#x27;CALL&#x27;, &#x27;HAVING&#x27;]), &#x27;oracle&#x27;: set([&#x27;SYSDATE&#x27;, &#x27;COMPRESS&#x27;, &#x27;FILE&#x27;, &#x27;WITH&#x27;, &#x27;ALTER&#x27;, &#x27;COMMENT&#x27;, &#x27;UID&#x27;, &#x27;LONG&#x27;, &#x27;RAW&#x27;, &#x27;SESSION&#x27;, &#x27;CHECK&#x27;, &#x27;AUDIT&#x27;, &#x27;LEVEL&#x27;, &#x27;CURRENT&#x27;, &#x27;TRIGGER&#x27;, &#x27;UNIQUE&#x27;, &#x27;WHERE&#x27;, &#x27;ON&#x27;, &#x27;OF&#x27;, &#x27;CLUSTER&#x27;, &#x27;VALUES&#x27;, &#x27;MLSLABEL&#x27;, &#x27;OR&#x27;, &#x27;DELETE&#x27;, &#x27;INDEX&#x27;, &#x27;GROUP&#x27;, &#x27;INITIAL&#x27;, &#x27;MODIFY&#x27;, &#x27;USER&#x27;, &#x27;OFFLINE&#x27;, &#x27;MINUS&#x27;, &#x27;SELECT&#x27;, &#x27;DISTINCT&#x27;, &#x27;SHARE&#x27;, &#x27;BY&#x27;, &#x27;CONNECT&#x27;, &#x27;INTEGER&#x27;, &#x27;ROWNUM&#x27;, &#x27;INTO&#x27;, &#x27;ROW&#x27;, &#x27;FOR&#x27;, &#x27;UNION&#x27;, &#x27;UPDATE&#x27;, &#x27;ELSE&#x27;, &#x27;PRIOR&#x27;, &#x27;SET&#x27;, &#x27;VALIDATE&#x27;, &#x27;MAXEXTENTS&#x27;, &#x27;SIZE&#x27;, &#x27;AND&#x27;, &#x27;NOT&#x27;, &#x27;VIEW&#x27;, &#x27;ANY&#x27;, &#x27;THEN&#x27;, &#x27;SYNONYM&#x27;, &#x27;OPTION&#x27;, &#x27;DEFAULT&#x27;, &#x27;CHAR&#x27;, &#x27;NOWAIT&#x27;, &#x27;ORDER&#x27;, &#x27;NOCOMPRESS&#x27;, &#x27;COLUMN&#x27;, &#x27;DROP&#x27;, &#x27;IDENTIFIED&#x27;, &#x27;ASC&#x27;, &#x27;INCREMENT&#x27;, &#x27;TABLE&#x27;, &#x27;PCTFREE&#x27;, &#x27;LOCK&#x27;, &#x27;DECIMAL&#x27;, &#x27;ADD&#x27;, &#x27;BETWEEN&#x27;, &#x27;ALL&#x27;, &#x27;ROWS&#x27;, &#x27;LIKE&#x27;, &#x27;WHENEVER&#x27;, &#x27;PUBLIC&#x27;, &#x27;RENAME&#x27;, &#x27;REVOKE&#x27;, &#x27;NUMBER&#x27;, &#x27;VARCHAR2&#x27;, &#x27;DATE&#x27;, &#x27;NULL&#x27;, &#x27;SMALLINT&#x27;, &#x27;INSERT&#x27;, &#x27;RESOURCE&#x27;, &#x27;PRIVILEGES&#x27;, &#x27;GRANT&#x27;, &#x27;IMMEDIATE&#x27;, &#x27;TO&#x27;, &#x27;MODE&#x27;, &#x27;ONLINE&#x27;, &#x27;EXISTS&#x27;, &#x27;EXCLUSIVE&#x27;, &#x27;SUCCESSFUL&#x27;, &#x27;IS&#x27;, &#x27;START&#x27;, &#x27;AS&#x27;, &#x27;NOAUDIT&#x27;, &#x27;INTERSECT&#x27;, &#x27;IN&#x27;, &#x27;VARCHAR&#x27;, &#x27;DESC&#x27;, &#x27;FROM&#x27;, &#x27;FLOAT&#x27;, &#x27;HAVING&#x27;, &#x27;ACCESS&#x27;, &#x27;ROWID&#x27;, &#x27;CREATE&#x27;]), &#x27;ingres&#x27;: set([&#x27;THEN&#x27;, &#x27;GROUP&#x27;, &#x27;MIN&#x27;, &#x27;END&#x27;, &#x27;BY&#x27;, &#x27;SELECT&#x27;, &#x27;CASE&#x27;, &#x27;INSERT&#x27;, &#x27;SET&#x27;, &#x27;DISTINCT&#x27;, &#x27;CREATE&#x27;, &#x27;DROP&#x27;, &#x27;WHEN&#x27;, &#x27;ORDER&#x27;, &#x27;ALTER&#x27;, &#x27;LEFT&#x27;, &#x27;OUTER&#x27;, &#x27;FOR&#x27;, &#x27;UPDATE&#x27;, &#x27;ELSE&#x27;, &#x27;AS&#x27;, &#x27;INNER&#x27;, &#x27;IN&#x27;, &#x27;JOIN&#x27;, &#x27;WHERE&#x27;, &#x27;IF&#x27;, &#x27;AND&#x27;, &#x27;ON&#x27;, &#x27;FROM&#x27;, &#x27;LIKE&#x27;, &#x27;MAX&#x27;, &#x27;OR&#x27;, &#x27;LOOP&#x27;, &#x27;DELETE&#x27;]), &#x27;db2&#x27;: set([&#x27;THEN&#x27;, &#x27;GROUP&#x27;, &#x27;MIN&#x27;, &#x27;END&#x27;, &#x27;BY&#x27;, &#x27;SELECT&#x27;, &#x27;CASE&#x27;, &#x27;INSERT&#x27;, &#x27;SET&#x27;, &#x27;DISTINCT&#x27;, &#x27;CREATE&#x27;, &#x27;DROP&#x27;, &#x27;WHEN&#x27;, &#x27;ORDER&#x27;, &#x27;ALTER&#x27;, &#x27;LEFT&#x27;, &#x27;OUTER&#x27;, &#x27;FOR&#x27;, &#x27;UPDATE&#x27;, &#x27;ELSE&#x27;, &#x27;AS&#x27;, &#x27;INNER&#x27;, &#x27;IN&#x27;, &#x27;JOIN&#x27;, &#x27;WHERE&#x27;, &#x27;IF&#x27;, &#x27;AND&#x27;, &#x27;ON&#x27;, &#x27;FROM&#x27;, &#x27;LIKE&#x27;, &#x27;MAX&#x27;, &#x27;OR&#x27;, &#x27;LOOP&#x27;, &#x27;DELETE&#x27;]), &#x27;mssql2&#x27;: set([&#x27;EXECUTE&#x27;, &#x27;TRANSACTION&#x27;, &#x27;OPENROWSET&#x27;, &#x27;THEN&#x27;, &#x27;OVER&#x27;, &#x27;BETWEEN&#x27;, &#x27;LOAD&#x27;, &#x27;CURRENT_DATE&#x27;, &#x27;KILL&#x27;, &#x27;FILE&#x27;, &#x27;WITH&#x27;, &#x27;BY&#x27;, &#x27;NONCLUSTERED&#x27;, &#x27;FREETEXTTABLE&#x27;, &#x27;TABLE&#x27;, &#x27;SYSTEM_USER&#x27;, &#x27;REPLICATION&#x27;, &#x27;OPENQUERY&#x27;, &#x27;EXCEPT&#x27;, &#x27;SESSION_USER&#x27;, &#x27;READ&#x27;, &#x27;READTEXT&#x27;, &#x27;CHECK&#x27;, &#x27;FULL&#x27;, &#x27;COMPUTE&#x27;, &#x27;GOTO&#x27;, &#x27;GRANT&#x27;, &#x27;ORDER&#x27;, &#x27;COMMIT&#x27;, &#x27;CURRENT&#x27;, &#x27;TRIGGER&#x27;, &#x27;COLLATE&#x27;, &#x27;ESCAPE&#x27;, &#x27;UNIQUE&#x27;, &#x27;WHERE&#x27;, &#x27;DECLARE&#x27;, &#x27;PROCEDURE&#x27;, &#x27;ON&#x27;, &#x27;DOUBLE&#x27;, &#x27;CONTAINS&#x27;, &#x27;PRIMARY&#x27;, &#x27;CURSOR&#x27;, &#x27;ROWCOUNT&#x27;, &#x27;RAISERROR&#x27;, &#x27;VALUES&#x27;, &#x27;ROWGUIDCOL&#x27;, &#x27;OF&#x27;, &#x27;RESTORE&#x27;, &#x27;OR&#x27;, &#x27;DELETE&#x27;, &#x27;INDEX&#x27;, &#x27;CONVERT&#x27;, &#x27;GROUP&#x27;, &#x27;TRUNCATE&#x27;, &#x27;TSEQUAL&#x27;, &#x27;SOME&#x27;, &#x27;FOREIGN&#x27;, &#x27;RESTRICT&#x27;, &#x27;CURRENT_TIMESTAMP&#x27;, &#x27;USER&#x27;, &#x27;CURRENT_USER&#x27;, &#x27;PRINT&#x27;, &#x27;ROLLBACK&#x27;, &#x27;SELECT&#x27;, &#x27;BEGIN&#x27;, &#x27;IDENTITYCOL&#x27;, &#x27;DISTINCT&#x27;, &#x27;NOCHECK&#x27;, &#x27;ALTER&#x27;, &#x27;COALESCE&#x27;, &#x27;SETUSER&#x27;, &#x27;DEALLOCATE&#x27;, &#x27;IS&#x27;, &#x27;FUNCTION&#x27;, &#x27;END&#x27;, &#x27;FOR&#x27;, &#x27;UNION&#x27;, &#x27;VARYING&#x27;, &#x27;UPDATE&#x27;, &#x27;ELSE&#x27;, &#x27;UPDATETEXT&#x27;, &#x27;IDENTITY&#x27;, &#x27;AND&#x27;, &#x27;WRITETEXT&#x27;, &#x27;SAVE&#x27;, &#x27;HOLDLOCK&#x27;, &#x27;OFFSETS&#x27;, &#x27;PRECISION&#x27;, &#x27;CHECKPOINT&#x27;, &#x27;CONTINUE&#x27;, &#x27;NOT&#x27;, &#x27;VIEW&#x27;, &#x27;PROC&#x27;, &#x27;ANY&#x27;, &#x27;PLAN&#x27;, &#x27;CURRENT_TIME&#x27;, &#x27;OPTION&#x27;, &#x27;DUMP&#x27;, &#x27;FREETEXT&#x27;, &#x27;DEFAULT&#x27;, &#x27;CONTAINSTABLE&#x27;, &#x27;CROSS&#x27;, &#x27;BULK&#x27;, &#x27;WHILE&#x27;, &#x27;REFERENCES&#x27;, &#x27;RETURN&#x27;, &#x27;OPEN&#x27;, &#x27;FETCH&#x27;, &#x27;CASE&#x27;, &#x27;SET&#x27;, &#x27;COLUMN&#x27;, &#x27;DROP&#x27;, &#x27;RULE&#x27;, &#x27;ASC&#x27;, &#x27;AUTHORIZATION&#x27;, &#x27;CLOSE&#x27;, &#x27;DESC&#x27;, &#x27;DBCC&#x27;, &#x27;LEFT&#x27;, &#x27;DUMMY&#x27;, &#x27;OUTER&#x27;, &#x27;DISTRIBUTED&#x27;, &#x27;CASCADE&#x27;, &#x27;ADD&#x27;, &#x27;ERRLVL&#x27;, &#x27;ALL&#x27;, &#x27;STATISTICS&#x27;, &#x27;JOIN&#x27;, &#x27;LIKE&#x27;, &#x27;DATABASE&#x27;, &#x27;NULLIF&#x27;, &#x27;TRAN&#x27;, &#x27;NATIONAL &#x27;, &#x27;BREAK&#x27;, &#x27;EXIT&#x27;, &#x27;KEY&#x27;, &#x27;SCHEMA&#x27;, &#x27;PUBLIC&#x27;, &#x27;USE&#x27;, &#x27;REVOKE&#x27;, &#x27;OPENDATASOURCE&#x27;, &#x27;TOP&#x27;, &#x27;WAITFOR&#x27;, &#x27;SHUTDOWN&#x27;, &#x27;OFF&#x27;, &#x27;DISK&#x27;, &#x27;INSERT&#x27;, &#x27;NULL&#x27;, &#x27;CONSTRAINT&#x27;, &#x27;BROWSE&#x27;, &#x27;CREATE&#x27;, &#x27;EXEC&#x27;, &#x27;WHEN&#x27;, &#x27;TO&#x27;, &#x27;RECONFIGURE&#x27;, &#x27;IDENTITY_INSERT&#x27;, &#x27;EXISTS&#x27;, &#x27;PERCENT&#x27;, &#x27;INTO&#x27;, &#x27;DENY&#x27;, &#x27;AS&#x27;, &#x27;INNER&#x27;, &#x27;INTERSECT&#x27;, &#x27;IN&#x27;, &#x27;IF&#x27;, &#x27;RIGHT&#x27;, &#x27;FROM&#x27;, &#x27;TEXTSIZE&#x27;, &#x27;OPENXML&#x27;, &#x27;FILLFACTOR&#x27;, &#x27;LINENO&#x27;, &#x27;CLUSTERED&#x27;, &#x27;BACKUP&#x27;, &#x27;HAVING&#x27;]), &#x27;mssql&#x27;: set([&#x27;EXECUTE&#x27;, &#x27;TRANSACTION&#x27;, &#x27;OPENROWSET&#x27;, &#x27;THEN&#x27;, &#x27;OVER&#x27;, &#x27;BETWEEN&#x27;, &#x27;LOAD&#x27;, &#x27;CURRENT_DATE&#x27;, &#x27;KILL&#x27;, &#x27;FILE&#x27;, &#x27;WITH&#x27;, &#x27;BY&#x27;, &#x27;NONCLUSTERED&#x27;, &#x27;FREETEXTTABLE&#x27;, &#x27;TABLE&#x27;, &#x27;SYSTEM_USER&#x27;, &#x27;REPLICATION&#x27;, &#x27;OPENQUERY&#x27;, &#x27;EXCEPT&#x27;, &#x27;SESSION_USER&#x27;, &#x27;READ&#x27;, &#x27;READTEXT&#x27;, &#x27;CHECK&#x27;, &#x27;FULL&#x27;, &#x27;COMPUTE&#x27;, &#x27;GOTO&#x27;, &#x27;GRANT&#x27;, &#x27;ORDER&#x27;, &#x27;COMMIT&#x27;, &#x27;CURRENT&#x27;, &#x27;TRIGGER&#x27;, &#x27;COLLATE&#x27;, &#x27;ESCAPE&#x27;, &#x27;UNIQUE&#x27;, &#x27;WHERE&#x27;, &#x27;DECLARE&#x27;, &#x27;PROCEDURE&#x27;, &#x27;ON&#x27;, &#x27;DOUBLE&#x27;, &#x27;CONTAINS&#x27;, &#x27;PRIMARY&#x27;, &#x27;CURSOR&#x27;, &#x27;ROWCOUNT&#x27;, &#x27;RAISERROR&#x27;, &#x27;VALUES&#x27;, &#x27;ROWGUIDCOL&#x27;, &#x27;OF&#x27;, &#x27;RESTORE&#x27;, &#x27;OR&#x27;, &#x27;DELETE&#x27;, &#x27;INDEX&#x27;, &#x27;CONVERT&#x27;, &#x27;GROUP&#x27;, &#x27;TRUNCATE&#x27;, &#x27;TSEQUAL&#x27;, &#x27;SOME&#x27;, &#x27;FOREIGN&#x27;, &#x27;RESTRICT&#x27;, &#x27;CURRENT_TIMESTAMP&#x27;, &#x27;USER&#x27;, &#x27;CURRENT_USER&#x27;, &#x27;PRINT&#x27;, &#x27;ROLLBACK&#x27;, &#x27;SELECT&#x27;, &#x27;BEGIN&#x27;, &#x27;IDENTITYCOL&#x27;, &#x27;DISTINCT&#x27;, &#x27;NOCHECK&#x27;, &#x27;ALTER&#x27;, &#x27;COALESCE&#x27;, &#x27;SETUSER&#x27;, &#x27;DEALLOCATE&#x27;, &#x27;IS&#x27;, &#x27;FUNCTION&#x27;, &#x27;END&#x27;, &#x27;FOR&#x27;, &#x27;UNION&#x27;, &#x27;VARYING&#x27;, &#x27;UPDATE&#x27;, &#x27;ELSE&#x27;, &#x27;UPDATETEXT&#x27;, &#x27;IDENTITY&#x27;, &#x27;AND&#x27;, &#x27;WRITETEXT&#x27;, &#x27;SAVE&#x27;, &#x27;HOLDLOCK&#x27;, &#x27;OFFSETS&#x27;, &#x27;PRECISION&#x27;, &#x27;CHECKPOINT&#x27;, &#x27;CONTINUE&#x27;, &#x27;NOT&#x27;, &#x27;VIEW&#x27;, &#x27;PROC&#x27;, &#x27;ANY&#x27;, &#x27;PLAN&#x27;, &#x27;CURRENT_TIME&#x27;, &#x27;OPTION&#x27;, &#x27;DUMP&#x27;, &#x27;FREETEXT&#x27;, &#x27;DEFAULT&#x27;, &#x27;CONTAINSTABLE&#x27;, &#x27;CROSS&#x27;, &#x27;BULK&#x27;, &#x27;WHILE&#x27;, &#x27;REFERENCES&#x27;, &#x27;RETURN&#x27;, &#x27;OPEN&#x27;, &#x27;FETCH&#x27;, &#x27;CASE&#x27;, &#x27;SET&#x27;, &#x27;COLUMN&#x27;, &#x27;DROP&#x27;, &#x27;RULE&#x27;, &#x27;ASC&#x27;, &#x27;AUTHORIZATION&#x27;, &#x27;CLOSE&#x27;, &#x27;DESC&#x27;, &#x27;DBCC&#x27;, &#x27;LEFT&#x27;, &#x27;DUMMY&#x27;, &#x27;OUTER&#x27;, &#x27;DISTRIBUTED&#x27;, &#x27;CASCADE&#x27;, &#x27;ADD&#x27;, &#x27;ERRLVL&#x27;, &#x27;ALL&#x27;, &#x27;STATISTICS&#x27;, &#x27;JOIN&#x27;, &#x27;LIKE&#x27;, &#x27;DATABASE&#x27;, &#x27;NULLIF&#x27;, &#x27;TRAN&#x27;, &#x27;NATIONAL &#x27;, &#x27;BREAK&#x27;, &#x27;EXIT&#x27;, &#x27;KEY&#x27;, &#x27;SCHEMA&#x27;, &#x27;PUBLIC&#x27;, &#x27;USE&#x27;, &#x27;REVOKE&#x27;, &#x27;OPENDATASOURCE&#x27;, &#x27;TOP&#x27;, &#x27;WAITFOR&#x27;, &#x27;SHUTDOWN&#x27;, &#x27;OFF&#x27;, &#x27;DISK&#x27;, &#x27;INSERT&#x27;, &#x27;NULL&#x27;, &#x27;CONSTRAINT&#x27;, &#x27;BROWSE&#x27;, &#x27;CREATE&#x27;, &#x27;EXEC&#x27;, &#x27;WHEN&#x27;, &#x27;TO&#x27;, &#x27;RECONFIGURE&#x27;, &#x27;IDENTITY_INSERT&#x27;, &#x27;EXISTS&#x27;, &#x27;PERCENT&#x27;, &#x27;INTO&#x27;, &#x27;DENY&#x27;, &#x27;AS&#x27;, &#x27;INNER&#x27;, &#x27;INTERSECT&#x27;, &#x27;IN&#x27;, &#x27;IF&#x27;, &#x27;RIGHT&#x27;, &#x27;FROM&#x27;, &#x27;TEXTSIZE&#x27;, &#x27;OPENXML&#x27;, &#x27;FILLFACTOR&#x27;, &#x27;LINENO&#x27;, &#x27;CLUSTERED&#x27;, &#x27;BACKUP&#x27;, &#x27;HAVING&#x27;]), &#x27;firebird&#x27;: set([&#x27;VERSION&#x27;, &#x27;GENERATOR&#x27;, &#x27;OCTET_LENGTH&#x27;, &#x27;FILE&#x27;, &#x27;TRUE&#x27;, &#x27;CURRENT_ROLE&#x27;, &#x27;SHELL&#x27;, &#x27;COMPILETIME&#x27;, &#x27;STARTS&#x27;, &#x27;LONG&#x27;, &#x27;INIT&#x27;, &#x27;NUM_LOG_BUFS&#x27;, &#x27;BUFFER&#x27;, &#x27;MERGE&#x27;, &#x27;RETURNS&#x27;, &#x27;STATISTICS&#x27;, &#x27;GROUP_COMMIT_WAIT_TIME&#x27;, &#x27;DISCONNECT&#x27;, &#x27;BEFORE&#x27;, &#x27;GDSCODE&#x27;, &#x27;INSENSITIVE&#x27;, &#x27;SENSITIVE&#x27;, &#x27;EDIT&#x27;, &#x27;AFTER&#x27;, &#x27;STABILITY&#x27;, &#x27;LENGTH&#x27;, &#x27;ISQL&#x27;, &#x27;SHARED&#x27;, &#x27;SUB_TYPE&#x27;, &#x27;INDEX&#x27;, &#x27;RAW_PARTITIONS&#x27;, &#x27;BASED&#x27;, &#x27;HELP&#x27;, &#x27;CURRENT_CONNECTION&#x27;, &#x27;PAGELENGTH&#x27;, &#x27;AUTODDL&#x27;, &#x27;STATIC&#x27;, &#x27;WEEKDAY&#x27;, &#x27;CURRENT_USER&#x27;, &#x27;RESERV&#x27;, &#x27;SHADOW&#x27;, &#x27;CONTAINING&#x27;, &#x27;SAVEPOINT&#x27;, &#x27;DISPLAY&#x27;, &#x27;LOG_BUFFER_SIZE&#x27;, &#x27;MINIMUM&#x27;, &#x27;SNAPSHOT&#x27;, &#x27;CONNECT&#x27;, &#x27;AUTO&#x27;, &#x27;LOGFILE&#x27;, &#x27;STARTING&#x27;, &#x27;FUNCTION&#x27;, &#x27;RECURSIVE&#x27;, &#x27;BLOBEDIT&#x27;, &#x27;ECHO&#x27;, &#x27;ENTRY_POINT&#x27;, &#x27;TERMINATOR&#x27;, &#x27;RETURNING_VALUES&#x27;, &#x27;DEBUG&#x27;, &#x27;START&#x27;, &#x27;MAXIMUM_SEGMENT&#x27;, &#x27;PAGE&#x27;, &#x27;FILTER&#x27;, &#x27;ROW_COUNT&#x27;, &#x27;GROUP_COMMIT_WAIT&#x27;, &#x27;BLOB&#x27;, &#x27;OUTPUT_TYPE&#x27;, &#x27;PAGES&#x27;, &#x27;POST_EVENT&#x27;, &#x27;CHECK_POINT_LEN&#x27;, &#x27;SINGULAR&#x27;, &#x27;LOG_BUF_SIZE&#x27;, &#x27;UNKNOWN&#x27;, &#x27;GLOBAL&#x27;, &#x27;CROSS&#x27;, &#x27;MAX_SEGMENT&#x27;, &#x27;ACTIVE&#x27;, &#x27;WHILE&#x27;, &#x27;INACTIVE&#x27;, &#x27;EXTERN&#x27;, &#x27;RETURN&#x27;, &#x27;OVERFLOW&#x27;, &#x27;OPEN&#x27;, &#x27;FETCH&#x27;, &#x27;NUM_LOG_BUFFERS&#x27;, &#x27;RDB$DB_KEY&#x27;, &#x27;BASE_NAME&#x27;, &#x27;CONDITIONAL&#x27;, &#x27;ASCENDING&#x27;, &#x27;GEN_ID&#x27;, &#x27;CHARACTER_LENGTH&#x27;, &#x27;COMMITTED&#x27;, &#x27;CLOSE&#x27;, &#x27;SORT&#x27;, &#x27;RECREATE&#x27;, &#x27;ADMIN&#x27;, &#x27;INPUT_TYPE&#x27;, &#x27;MAXIMUM&#x27;, &#x27;NOAUTO&#x27;, &#x27;DESCENDING&#x27;, &#x27;STATEMENT&#x27;, &#x27;MODULE_NAME&#x27;, &#x27;RESERVING&#x27;, &#x27;WAIT&#x27;, &#x27;QUIT&#x27;, &#x27;FREE_IT&#x27;, &#x27;ROWS&#x27;, &#x27;FALSE&#x27;, &#x27;LC_MESSAGES&#x27;, &#x27;DATABASE&#x27;, &#x27;MANUAL&#x27;, &#x27;PAGE_SIZE&#x27;, &#x27;BOOLEAN&#x27;, &#x27;EXIT&#x27;, &#x27;LEV&#x27;, &#x27;USING&#x27;, &#x27;TYPE&#x27;, &#x27;EVENT&#x27;, &#x27;DO&#x27;, &#x27;LOWER&#x27;, &#x27;BASENAME&#x27;, &#x27;CACHE&#x27;, &#x27;BIT_LENGTH&#x27;, &#x27;PARAMETER&#x27;, &#x27;TRIM&#x27;, &#x27;BOTH&#x27;, &#x27;SUSPEND&#x27;, &#x27;CHECK_POINT_LENGTH&#x27;, &#x27;TRAILING&#x27;, &#x27;CURRENT_TRANSACTION&#x27;, &#x27;SECOND&#x27;, &#x27;UNCOMMITTED&#x27;, &#x27;DB_KEY&#x27;, &#x27;RETAIN&#x27;, &#x27;YEARDAY&#x27;, &#x27;COMPUTED&#x27;, &#x27;SHOW&#x27;, &#x27;LEADING&#x27;, &#x27;CSTRING&#x27;, &#x27;RECORD_VERSION&#x27;, &#x27;RELEASE&#x27;, &#x27;ABS&#x27;, &#x27;PLAN&#x27;, &#x27;VARIABLE&#x27;, &#x27;RUNTIME&#x27;, &#x27;IF&#x27;, &#x27;LC_TYPE&#x27;, &#x27;TRIGGER&#x27;, &#x27;MESSAGE&#x27;, &#x27;CHAR_LENGTH&#x27;])}, &#x27;_pending_references&#x27;: {}, &#x27;_uri&#x27;: &#x27;sqlite://storage.sqlite&#x27;, &#x27;auth_membership&#x27;: &lt;Table auth_membership (id, user_id, group_id)&gt;, &#x27;auth_user&#x27;: &lt;Table auth_user (id, first_name, last_name, email, password, registration_key, reset_password_key, registration_id)&gt;, &#x27;_migrated&#x27;: [], &#x27;_fake_migrate&#x27;: False}.auth_user.id&gt;0</div></td></tr></table></div>'
tRp168
sS'etype'
p169
S"<type 'exceptions.SyntaxError'>"
p170
sS'date'
p171
S'Mon May 20 16:46:35 2019'
p172
sS'response'
p173
g68
(S's!\x1f\x00\x00<div><table><tr><td style="font-weight:bold;vertical-align:top;">body</td><td style="vertical-align:top;">:</td><td><div>&lt;cStringIO.StringO object at 0x09DEBEA0&gt;</div></td></tr><tr><td style="font-weight:bold;vertical-align:top;">cookies</td><td style="vertical-align:top;">:</td><td><div><table><tr><td style="font-weight:bold;vertical-align:top;">session_id_myapp</td><td style="vertical-align:top;">:</td><td><div>127.0.0.1-11fdf502-1c98-469f-b399-5e107ace33a8<table><tr><td style="font-weight:bold;vertical-align:top;">comment</td><td style="vertical-align:top;">:</td><td><div></div></td></tr><tr><td style="font-weight:bold;vertical-align:top;">domain</td><td style="vertical-align:top;">:</td><td><div></div></td></tr><tr><td style="font-weight:bold;vertical-align:top;">expires</td><td style="vertical-align:top;">:</td><td><div></div></td></tr><tr><td style="font-weight:bold;vertical-align:top;">httponly</td><td style="vertical-align:top;">:</td><td><div></div></td></tr><tr><td style="font-weight:bold;vertical-align:top;">max-age</td><td style="vertical-align:top;">:</td><td><div></div></td></tr><tr><td style="font-weight:bold;vertical-align:top;">path</td><td style="vertical-align:top;">:</td><td><div>/</div></td></tr><tr><td style="font-weight:bold;vertical-align:top;">samesite</td><td style="vertical-align:top;">:</td><td><div></div></td></tr><tr><td style="font-weight:bold;vertical-align:top;">secure</td><td style="vertical-align:top;">:</td><td><div></div></td></tr><tr><td style="font-weight:bold;vertical-align:top;">version</td><td style="vertical-align:top;">:</td><td><div></div></td></tr></table></div></td></tr></table></div></td></tr><tr><td style="font-weight:bold;vertical-align:top;">delimiters</td><td style="vertical-align:top;">:</td><td><div><table><tr><td><div>{{</div></td></tr><tr><td><div>}}</div></td></tr></table></div></td></tr><tr><td style="font-weight:bold;vertical-align:top;">files</td><td style="vertical-align:top;">:</td><td><div><table></table></div></td></tr><tr><td style="font-weight:bold;vertical-align:top;">flash</td><td style="vertical-align:top;">:</td><td><div></div></td></tr><tr><td style="font-weight:bold;vertical-align:top;">form_label_separator</td><td style="vertical-align:top;">:</td><td><div></div></td></tr><tr><td style="font-weight:bold;vertical-align:top;">formstyle</td><td style="vertical-align:top;">:</td><td><div>bootstrap4_inline</div></td></tr><tr><td style="font-weight:bold;vertical-align:top;">generic_patterns</td><td style="vertical-align:top;">:</td><td><div><table><tr><td><div>*</div></td></tr></table></div></td></tr><tr><td style="font-weight:bold;vertical-align:top;">google_analytics_id</td><td style="vertical-align:top;">:</td><td><div>None</div></td></tr><tr><td style="font-weight:bold;vertical-align:top;">headers</td><td style="vertical-align:top;">:</td><td><div><table><tr><td style="font-weight:bold;vertical-align:top;">X-Powered-By</td><td style="vertical-align:top;">:</td><td><div>web2py</div></td></tr></table></div></td></tr><tr><td style="font-weight:bold;vertical-align:top;">menu</td><td style="vertical-align:top;">:</td><td><div><table><tr><td><div><table><tr><td><div>\xe8\xae\xbe\xe8\xae\xa1</div></td></tr><tr><td><div>False</div></td></tr><tr><td><div>/admin/default/design/myapp</div></td></tr></table></div></td></tr><tr><td><div><table><tr><td><div>db</div></td></tr><tr><td><div>False</div></td></tr><tr><td><div>/myapp/appadmin/index</div></td></tr></table></div></td></tr><tr><td><div><table><tr><td><div>\xe7\x8a\xb6\xe6\x80\x81</div></td></tr><tr><td><div>False</div></td></tr><tr><td><div>/myapp/appadmin/state</div></td></tr></table></div></td></tr><tr><td><div><table><tr><td><div>\xe9\xab\x98\xe9\x80\x9f\xe7\xbc\x93\xe5\xad\x98</div></td></tr><tr><td><div>False</div></td></tr><tr><td><div>/myapp/appadmin/ccache</div></td></tr></table></div></td></tr></table></div></td></tr><tr><td style="font-weight:bold;vertical-align:top;">meta</td><td style="vertical-align:top;">:</td><td><div><table><tr><td style="font-weight:bold;vertical-align:top;">author</td><td style="vertical-align:top;">:</td><td><div>Your Name &lt;you@example.com&gt;</div></td></tr><tr><td style="font-weight:bold;vertical-align:top;">description</td><td style="vertical-align:top;">:</td><td><div>a cool new app</div></td></tr><tr><td style="font-weight:bold;vertical-align:top;">generator</td><td style="vertical-align:top;">:</td><td><div>Web2py Web Framework</div></td></tr><tr><td style="font-weight:bold;vertical-align:top;">keywords</td><td style="vertical-align:top;">:</td><td><div><table><tr><td><div>web2py</div></td></tr><tr><td><div>python</div></td></tr><tr><td><div>framework</div></td></tr></table></div></td></tr></table></div></td></tr><tr><td style="font-weight:bold;vertical-align:top;">models_to_run</td><td style="vertical-align:top;">:</td><td><div><table><tr><td><div>^\\w+\\.py$</div></td></tr><tr><td><div>^appadmin/\\w+\\.py$</div></td></tr><tr><td><div>^appadmin/index/\\w+\\.py$</div></td></tr></table></div></td></tr><tr><td style="font-weight:bold;vertical-align:top;">postprocessing</td><td style="vertical-align:top;">:</td><td><div><table></table></div></td></tr><tr><td style="font-weight:bold;vertical-align:top;">session_client</td><td style="vertical-align:top;">:</td><td><div>127.0.0.1</div></td></tr><tr><td style="font-weight:bold;vertical-align:top;">session_cookie_compression_level</td><td style="vertical-align:top;">:</td><td><div>None</div></td></tr><tr><td style="font-weight:bold;vertical-align:top;">session_cookie_expires</td><td style="vertical-align:top;">:</td><td><div>None</div></td></tr><tr><td style="font-weight:bold;vertical-align:top;">session_data_name</td><td style="vertical-align:top;">:</td><td><div>session_data_myapp</div></td></tr><tr><td style="font-weight:bold;vertical-align:top;">session_file</td><td style="vertical-align:top;">:</td><td><div>&lt;open file &#x27;E:\\\\study\\\\dasanxia\\\\database\\\\web2py_win\\\\web2py\\\\applications\\\\myapp\\\\sessions\\\\078\\\\11a\\\\127.0.0.1-11fdf502-1c98-469f-b399-5e107ace33a8&#x27;, mode &#x27;rb+&#x27; at 0x0A637910&gt;</div></td></tr><tr><td style="font-weight:bold;vertical-align:top;">session_filename</td><td style="vertical-align:top;">:</td><td><div>E:\\study\\dasanxia\\database\\web2py_win\\web2py\\applications\\myapp\\sessions\\127.0.0.1-11fdf502-1c98-469f-b399-5e107ace33a8</div></td></tr><tr><td style="font-weight:bold;vertical-align:top;">session_hash</td><td style="vertical-align:top;">:</td><td><div>298eceef650428912503522fee77e45a</div></td></tr><tr><td style="font-weight:bold;vertical-align:top;">session_id</td><td style="vertical-align:top;">:</td><td><div>127.0.0.1-11fdf502-1c98-469f-b399-5e107ace33a8</div></td></tr><tr><td style="font-weight:bold;vertical-align:top;">session_id_name</td><td style="vertical-align:top;">:</td><td><div>session_id_myapp</div></td></tr><tr><td style="font-weight:bold;vertical-align:top;">session_locked</td><td style="vertical-align:top;">:</td><td><div>True</div></td></tr><tr><td style="font-weight:bold;vertical-align:top;">session_masterapp</td><td style="vertical-align:top;">:</td><td><div>myapp</div></td></tr><tr><td style="font-weight:bold;vertical-align:top;">session_new</td><td style="vertical-align:top;">:</td><td><div>False</div></td></tr><tr><td style="font-weight:bold;vertical-align:top;">session_storage_type</td><td style="vertical-align:top;">:</td><td><div>file</div></td></tr><tr><td style="font-weight:bold;vertical-align:top;">show_toolbar</td><td style="vertical-align:top;">:</td><td><div>False</div></td></tr><tr><td style="font-weight:bold;vertical-align:top;">status</td><td style="vertical-align:top;">:</td><td><div>200</div></td></tr><tr><td style="font-weight:bold;vertical-align:top;">subtitle</td><td style="vertical-align:top;">:</td><td><div>Database Administration (appadmin)</div></td></tr><tr><td style="font-weight:bold;vertical-align:top;">view</td><td style="vertical-align:top;">:</td><td><div>appadmin.html</div></td></tr></table></div>'
tRp174
sS'locals'
p175
(dp176
g3
S"r'E:\\study\\dasanxia\\database\\web2py_win\\web2py\\applications\\myapp\\views\\appadmin.html'"
p177
sg5
S'r"response.write(\'<!DOCTYPE html>\\r\\n<!--[if (gt I...ite(\'\\r\\n  </body>\\r\\n</html>\\r\\n\', escape=False)"'
p178
sssS'traceback'
p179
S'Traceback (most recent call last):\n  File "E:\\study\\dasanxia\\database\\web2py_win\\web2py\\gluon\\main.py", line 444, in wsgibase\n    serve_controller(request, response, session)\n  File "E:\\study\\dasanxia\\database\\web2py_win\\web2py\\gluon\\main.py", line 183, in serve_controller\n    page = run_view_in(response._view_environment)\n  File "E:\\study\\dasanxia\\database\\web2py_win\\web2py\\gluon\\compileapp.py", line 733, in run_view_in\n    ccode = compile2(scode, filename)\n  File "E:\\study\\dasanxia\\database\\web2py_win\\web2py\\gluon\\restricted.py", line 205, in compile2\n    return compile(code, layer, \'exec\')\n  File "E:\\study\\dasanxia\\database\\web2py_win\\web2py\\applications\\myapp\\views\\appadmin.html", line 195\n    elif request.function==\'select\':\n       ^\nSyntaxError: invalid syntax\n'
p180
s.